
firmware.elf:     file format elf32-littleriscv


Disassembly of section .text:

00000000 <_start>:
       0:	00010137          	lui	sp,0x10
       4:	00010113          	mv	sp,sp
       8:	00001537          	lui	a0,0x1
       c:	2b850513          	addi	a0,a0,696 # 12b8 <cursor_pos>
      10:	000015b7          	lui	a1,0x1
      14:	2c058593          	addi	a1,a1,704 # 12c0 <__bss_end>

00000018 <clear_bss>:
      18:	00b55863          	bge	a0,a1,28 <done_bss>
      1c:	00052023          	sw	zero,0(a0)
      20:	00450513          	addi	a0,a0,4
      24:	ff5ff06f          	j	18 <clear_bss>

00000028 <done_bss>:
      28:	008000ef          	jal	30 <main>

0000002c <halt>:
      2c:	0000006f          	j	2c <halt>

00000030 <main>:
      30:	ff010113          	addi	sp,sp,-16 # fff0 <__bss_end+0xed30>
      34:	00112623          	sw	ra,12(sp)
      38:	030000ef          	jal	68 <term_init>
      3c:	00001537          	lui	a0,0x1
      40:	f8450513          	addi	a0,a0,-124 # f84 <__clzsi2+0x4c>
      44:	304000ef          	jal	348 <term_printf>
      48:	00001537          	lui	a0,0x1
      4c:	fa450513          	addi	a0,a0,-92 # fa4 <__clzsi2+0x6c>
      50:	2f8000ef          	jal	348 <term_printf>
      54:	00001537          	lui	a0,0x1
      58:	fc450513          	addi	a0,a0,-60 # fc4 <__clzsi2+0x8c>
      5c:	2ec000ef          	jal	348 <term_printf>
      60:	6cc000ef          	jal	72c <memtest_main>
      64:	0000006f          	j	64 <main+0x34>

00000068 <term_init>:
      68:	000017b7          	lui	a5,0x1
      6c:	20000737          	lui	a4,0x20000
      70:	2a07ac23          	sw	zero,696(a5) # 12b8 <cursor_pos>
      74:	4b070713          	addi	a4,a4,1200 # 200004b0 <__heap_end+0xc0004b0>
      78:	200007b7          	lui	a5,0x20000
      7c:	02000693          	li	a3,32
      80:	00d78023          	sb	a3,0(a5) # 20000000 <__heap_end+0xc000000>
      84:	00178793          	addi	a5,a5,1
      88:	fee79ce3          	bne	a5,a4,80 <term_init+0x18>
      8c:	00008067          	ret

00000090 <term_putchar>:
      90:	000015b7          	lui	a1,0x1
      94:	00a00793          	li	a5,10
      98:	2b85a603          	lw	a2,696(a1) # 12b8 <cursor_pos>
      9c:	1af50263          	beq	a0,a5,240 <term_putchar+0x1b0>
      a0:	00d00793          	li	a5,13
      a4:	0af50263          	beq	a0,a5,148 <term_putchar+0xb8>
      a8:	00900793          	li	a5,9
      ac:	0cf51463          	bne	a0,a5,174 <term_putchar+0xe4>
      b0:	02700693          	li	a3,39
      b4:	04c6de63          	bge	a3,a2,110 <term_putchar+0x80>
      b8:	00060793          	mv	a5,a2
      bc:	00078713          	mv	a4,a5
      c0:	fd878793          	addi	a5,a5,-40
      c4:	fef6cce3          	blt	a3,a5,bc <term_putchar+0x2c>
      c8:	fdc70713          	addi	a4,a4,-36
      cc:	ffc77713          	andi	a4,a4,-4
      d0:	02800793          	li	a5,40
      d4:	00000693          	li	a3,0
      d8:	04f71463          	bne	a4,a5,120 <term_putchar+0x90>
      dc:	02700793          	li	a5,39
      e0:	fd860613          	addi	a2,a2,-40
      e4:	00068713          	mv	a4,a3
      e8:	00168693          	addi	a3,a3,1
      ec:	fec7cae3          	blt	a5,a2,e0 <term_putchar+0x50>
      f0:	00270713          	addi	a4,a4,2
      f4:	01d00793          	li	a5,29
      f8:	0ae7c663          	blt	a5,a4,1a4 <term_putchar+0x114>
      fc:	00271793          	slli	a5,a4,0x2
     100:	00e787b3          	add	a5,a5,a4
     104:	00379793          	slli	a5,a5,0x3
     108:	2af5ac23          	sw	a5,696(a1)
     10c:	00008067          	ret
     110:	00460793          	addi	a5,a2,4
     114:	ffc7f793          	andi	a5,a5,-4
     118:	2af5ac23          	sw	a5,696(a1)
     11c:	00008067          	ret
     120:	02700793          	li	a5,39
     124:	fd860613          	addi	a2,a2,-40
     128:	00168693          	addi	a3,a3,1
     12c:	fec7cce3          	blt	a5,a2,124 <term_putchar+0x94>
     130:	00269793          	slli	a5,a3,0x2
     134:	00d787b3          	add	a5,a5,a3
     138:	00379793          	slli	a5,a5,0x3
     13c:	00e787b3          	add	a5,a5,a4
     140:	2af5ac23          	sw	a5,696(a1)
     144:	00008067          	ret
     148:	02700713          	li	a4,39
     14c:	00000793          	li	a5,0
     150:	fcc754e3          	bge	a4,a2,118 <term_putchar+0x88>
     154:	fd860613          	addi	a2,a2,-40
     158:	00178793          	addi	a5,a5,1
     15c:	fec74ce3          	blt	a4,a2,154 <term_putchar+0xc4>
     160:	00279713          	slli	a4,a5,0x2
     164:	00f707b3          	add	a5,a4,a5
     168:	00379793          	slli	a5,a5,0x3
     16c:	2af5ac23          	sw	a5,696(a1)
     170:	00008067          	ret
     174:	fe050793          	addi	a5,a0,-32
     178:	0ff7f793          	zext.b	a5,a5
     17c:	05e00713          	li	a4,94
     180:	02f76063          	bltu	a4,a5,1a0 <term_putchar+0x110>
     184:	200007b7          	lui	a5,0x20000
     188:	00f607b3          	add	a5,a2,a5
     18c:	00160613          	addi	a2,a2,1
     190:	00a78023          	sb	a0,0(a5) # 20000000 <__heap_end+0xc000000>
     194:	2ac5ac23          	sw	a2,696(a1)
     198:	4af00793          	li	a5,1199
     19c:	04c7cc63          	blt	a5,a2,1f4 <term_putchar+0x164>
     1a0:	00008067          	ret
     1a4:	200007b7          	lui	a5,0x20000
     1a8:	00078693          	mv	a3,a5
     1ac:	4b068693          	addi	a3,a3,1200
     1b0:	02878793          	addi	a5,a5,40 # 20000028 <__heap_end+0xc000028>
     1b4:	0007c703          	lbu	a4,0(a5)
     1b8:	00178793          	addi	a5,a5,1
     1bc:	0ff77713          	zext.b	a4,a4
     1c0:	fce78ba3          	sb	a4,-41(a5)
     1c4:	fed798e3          	bne	a5,a3,1b4 <term_putchar+0x124>
     1c8:	200007b7          	lui	a5,0x20000
     1cc:	00078713          	mv	a4,a5
     1d0:	4b070713          	addi	a4,a4,1200
     1d4:	48878793          	addi	a5,a5,1160 # 20000488 <__heap_end+0xc000488>
     1d8:	02000693          	li	a3,32
     1dc:	00d78023          	sb	a3,0(a5)
     1e0:	00178793          	addi	a5,a5,1
     1e4:	fee79ce3          	bne	a5,a4,1dc <term_putchar+0x14c>
     1e8:	48800793          	li	a5,1160
     1ec:	2af5ac23          	sw	a5,696(a1)
     1f0:	00008067          	ret
     1f4:	200007b7          	lui	a5,0x20000
     1f8:	00078693          	mv	a3,a5
     1fc:	4b068693          	addi	a3,a3,1200
     200:	02878793          	addi	a5,a5,40 # 20000028 <__heap_end+0xc000028>
     204:	0007c703          	lbu	a4,0(a5)
     208:	00178793          	addi	a5,a5,1
     20c:	0ff77713          	zext.b	a4,a4
     210:	fce78ba3          	sb	a4,-41(a5)
     214:	fed798e3          	bne	a5,a3,204 <term_putchar+0x174>
     218:	200007b7          	lui	a5,0x20000
     21c:	00078713          	mv	a4,a5
     220:	4b070713          	addi	a4,a4,1200
     224:	48878793          	addi	a5,a5,1160 # 20000488 <__heap_end+0xc000488>
     228:	02000693          	li	a3,32
     22c:	00d78023          	sb	a3,0(a5)
     230:	00178793          	addi	a5,a5,1
     234:	fee79ce3          	bne	a5,a4,22c <term_putchar+0x19c>
     238:	48800793          	li	a5,1160
     23c:	fb1ff06f          	j	1ec <term_putchar+0x15c>
     240:	02700793          	li	a5,39
     244:	00c7d663          	bge	a5,a2,250 <term_putchar+0x1c0>
     248:	00000693          	li	a3,0
     24c:	e91ff06f          	j	dc <term_putchar+0x4c>
     250:	02800793          	li	a5,40
     254:	ec5ff06f          	j	118 <term_putchar+0x88>

00000258 <term_putdec>:
     258:	fe010113          	addi	sp,sp,-32
     25c:	00112e23          	sw	ra,28(sp)
     260:	00812c23          	sw	s0,24(sp)
     264:	00912a23          	sw	s1,20(sp)
     268:	08054463          	bltz	a0,2f0 <term_putdec+0x98>
     26c:	00050713          	mv	a4,a0
     270:	0a050663          	beqz	a0,31c <term_putdec+0xc4>
     274:	00900793          	li	a5,9
     278:	00000593          	li	a1,0
     27c:	0aa7fc63          	bgeu	a5,a0,334 <term_putdec+0xdc>
     280:	00000413          	li	s0,0
     284:	00410493          	addi	s1,sp,4
     288:	00900693          	li	a3,9
     28c:	00070793          	mv	a5,a4
     290:	00000713          	li	a4,0
     294:	ff678793          	addi	a5,a5,-10
     298:	00170713          	addi	a4,a4,1
     29c:	fef6ece3          	bltu	a3,a5,294 <term_putdec+0x3c>
     2a0:	00140413          	addi	s0,s0,1
     2a4:	03078793          	addi	a5,a5,48
     2a8:	00848633          	add	a2,s1,s0
     2ac:	fef60fa3          	sb	a5,-1(a2)
     2b0:	fce6eee3          	bltu	a3,a4,28c <term_putdec+0x34>
     2b4:	03070713          	addi	a4,a4,48
     2b8:	002407b3          	add	a5,s0,sp
     2bc:	00e78223          	sb	a4,4(a5)
     2c0:	04059863          	bnez	a1,310 <term_putdec+0xb8>
     2c4:	00848433          	add	s0,s1,s0
     2c8:	00044503          	lbu	a0,0(s0)
     2cc:	dc5ff0ef          	jal	90 <term_putchar>
     2d0:	00040793          	mv	a5,s0
     2d4:	fff40413          	addi	s0,s0,-1
     2d8:	fef498e3          	bne	s1,a5,2c8 <term_putdec+0x70>
     2dc:	01c12083          	lw	ra,28(sp)
     2e0:	01812403          	lw	s0,24(sp)
     2e4:	01412483          	lw	s1,20(sp)
     2e8:	02010113          	addi	sp,sp,32
     2ec:	00008067          	ret
     2f0:	ff700793          	li	a5,-9
     2f4:	40a00733          	neg	a4,a0
     2f8:	00100593          	li	a1,1
     2fc:	f8f542e3          	blt	a0,a5,280 <term_putdec+0x28>
     300:	03070713          	addi	a4,a4,48
     304:	00e10223          	sb	a4,4(sp)
     308:	00000413          	li	s0,0
     30c:	00410493          	addi	s1,sp,4
     310:	02d00513          	li	a0,45
     314:	d7dff0ef          	jal	90 <term_putchar>
     318:	fadff06f          	j	2c4 <term_putdec+0x6c>
     31c:	01812403          	lw	s0,24(sp)
     320:	01c12083          	lw	ra,28(sp)
     324:	01412483          	lw	s1,20(sp)
     328:	03000513          	li	a0,48
     32c:	02010113          	addi	sp,sp,32
     330:	d61ff06f          	j	90 <term_putchar>
     334:	03050513          	addi	a0,a0,48
     338:	00a10223          	sb	a0,4(sp)
     33c:	00000413          	li	s0,0
     340:	00410493          	addi	s1,sp,4
     344:	f81ff06f          	j	2c4 <term_putdec+0x6c>

00000348 <term_printf>:
     348:	fa010113          	addi	sp,sp,-96
     34c:	03612023          	sw	s6,32(sp)
     350:	04f12a23          	sw	a5,84(sp)
     354:	02112e23          	sw	ra,60(sp)
     358:	04b12223          	sw	a1,68(sp)
     35c:	04c12423          	sw	a2,72(sp)
     360:	04d12623          	sw	a3,76(sp)
     364:	04e12823          	sw	a4,80(sp)
     368:	05012c23          	sw	a6,88(sp)
     36c:	05112e23          	sw	a7,92(sp)
     370:	00050b13          	mv	s6,a0
     374:	00054503          	lbu	a0,0(a0)
     378:	04410793          	addi	a5,sp,68
     37c:	00f12023          	sw	a5,0(sp)
     380:	08050c63          	beqz	a0,418 <term_printf+0xd0>
     384:	02812c23          	sw	s0,56(sp)
     388:	02912a23          	sw	s1,52(sp)
     38c:	03212823          	sw	s2,48(sp)
     390:	03312623          	sw	s3,44(sp)
     394:	03412423          	sw	s4,40(sp)
     398:	03512223          	sw	s5,36(sp)
     39c:	01912a23          	sw	s9,20(sp)
     3a0:	02500413          	li	s0,37
     3a4:	07800493          	li	s1,120
     3a8:	05700913          	li	s2,87
     3ac:	02000993          	li	s3,32
     3b0:	00001a37          	lui	s4,0x1
     3b4:	02851a63          	bne	a0,s0,3e8 <term_printf+0xa0>
     3b8:	001b4783          	lbu	a5,1(s6)
     3bc:	001b0a93          	addi	s5,s6,1
     3c0:	10f4e863          	bltu	s1,a5,4d0 <term_printf+0x188>
     3c4:	06f97263          	bgeu	s2,a5,428 <term_printf+0xe0>
     3c8:	fa878793          	addi	a5,a5,-88
     3cc:	0ff7f793          	zext.b	a5,a5
     3d0:	10f9e063          	bltu	s3,a5,4d0 <term_printf+0x188>
     3d4:	00279793          	slli	a5,a5,0x2
     3d8:	130a0713          	addi	a4,s4,304 # 1130 <__clzsi2+0x1f8>
     3dc:	00e787b3          	add	a5,a5,a4
     3e0:	0007a783          	lw	a5,0(a5)
     3e4:	00078067          	jr	a5
     3e8:	ca9ff0ef          	jal	90 <term_putchar>
     3ec:	000b0a93          	mv	s5,s6
     3f0:	001ac503          	lbu	a0,1(s5)
     3f4:	001a8b13          	addi	s6,s5,1
     3f8:	fa051ee3          	bnez	a0,3b4 <term_printf+0x6c>
     3fc:	03812403          	lw	s0,56(sp)
     400:	03412483          	lw	s1,52(sp)
     404:	03012903          	lw	s2,48(sp)
     408:	02c12983          	lw	s3,44(sp)
     40c:	02812a03          	lw	s4,40(sp)
     410:	02412a83          	lw	s5,36(sp)
     414:	01412c83          	lw	s9,20(sp)
     418:	03c12083          	lw	ra,60(sp)
     41c:	02012b03          	lw	s6,32(sp)
     420:	06010113          	addi	sp,sp,96
     424:	00008067          	ret
     428:	28878063          	beq	a5,s0,6a8 <term_printf+0x360>
     42c:	fd078613          	addi	a2,a5,-48
     430:	0ff67793          	zext.b	a5,a2
     434:	00900593          	li	a1,9
     438:	08f5ec63          	bltu	a1,a5,4d0 <term_printf+0x188>
     43c:	00000693          	li	a3,0
     440:	00269713          	slli	a4,a3,0x2
     444:	001ac783          	lbu	a5,1(s5)
     448:	00d70733          	add	a4,a4,a3
     44c:	00171713          	slli	a4,a4,0x1
     450:	00e606b3          	add	a3,a2,a4
     454:	fd078613          	addi	a2,a5,-48
     458:	0ff67713          	zext.b	a4,a2
     45c:	001a8a93          	addi	s5,s5,1
     460:	fee5f0e3          	bgeu	a1,a4,440 <term_printf+0xf8>
     464:	0df7f713          	andi	a4,a5,223
     468:	05800613          	li	a2,88
     46c:	f8c712e3          	bne	a4,a2,3f0 <term_printf+0xa8>
     470:	00012603          	lw	a2,0(sp)
     474:	01712e23          	sw	s7,28(sp)
     478:	01812c23          	sw	s8,24(sp)
     47c:	00460593          	addi	a1,a2,4
     480:	00b12023          	sw	a1,0(sp)
     484:	00062b83          	lw	s7,0(a2)
     488:	26e78263          	beq	a5,a4,6ec <term_printf+0x3a4>
     48c:	00001c37          	lui	s8,0x1
     490:	fe4c0c13          	addi	s8,s8,-28 # fe4 <__clzsi2+0xac>
     494:	00800793          	li	a5,8
     498:	24d7d463          	bge	a5,a3,6e0 <term_printf+0x398>
     49c:	00700693          	li	a3,7
     4a0:	00269b13          	slli	s6,a3,0x2
     4a4:	ffc00c93          	li	s9,-4
     4a8:	016bd7b3          	srl	a5,s7,s6
     4ac:	00f7f793          	andi	a5,a5,15
     4b0:	00fc07b3          	add	a5,s8,a5
     4b4:	0007c503          	lbu	a0,0(a5)
     4b8:	ffcb0b13          	addi	s6,s6,-4
     4bc:	bd5ff0ef          	jal	90 <term_putchar>
     4c0:	ff9b14e3          	bne	s6,s9,4a8 <term_printf+0x160>
     4c4:	01c12b83          	lw	s7,28(sp)
     4c8:	01812c03          	lw	s8,24(sp)
     4cc:	f25ff06f          	j	3f0 <term_printf+0xa8>
     4d0:	02500513          	li	a0,37
     4d4:	bbdff0ef          	jal	90 <term_putchar>
     4d8:	001b4503          	lbu	a0,1(s6)
     4dc:	bb5ff0ef          	jal	90 <term_putchar>
     4e0:	f11ff06f          	j	3f0 <term_printf+0xa8>
     4e4:	00012783          	lw	a5,0(sp)
     4e8:	0007a503          	lw	a0,0(a5)
     4ec:	00478793          	addi	a5,a5,4
     4f0:	00f12023          	sw	a5,0(sp)
     4f4:	d65ff0ef          	jal	258 <term_putdec>
     4f8:	ef9ff06f          	j	3f0 <term_printf+0xa8>
     4fc:	00012783          	lw	a5,0(sp)
     500:	01c00b13          	li	s6,28
     504:	ffc00713          	li	a4,-4
     508:	0007ac83          	lw	s9,0(a5)
     50c:	00478793          	addi	a5,a5,4
     510:	00f12023          	sw	a5,0(sp)
     514:	000c9863          	bnez	s9,524 <term_printf+0x1dc>
     518:	19c0006f          	j	6b4 <term_printf+0x36c>
     51c:	ffcb0b13          	addi	s6,s6,-4
     520:	eceb08e3          	beq	s6,a4,3f0 <term_printf+0xa8>
     524:	016cd7b3          	srl	a5,s9,s6
     528:	00f7f793          	andi	a5,a5,15
     52c:	fe0788e3          	beqz	a5,51c <term_printf+0x1d4>
     530:	01812c23          	sw	s8,24(sp)
     534:	00001c37          	lui	s8,0x1
     538:	01712e23          	sw	s7,28(sp)
     53c:	fe4c0b93          	addi	s7,s8,-28 # fe4 <__clzsi2+0xac>
     540:	ffc00c13          	li	s8,-4
     544:	00c0006f          	j	550 <term_printf+0x208>
     548:	016cd7b3          	srl	a5,s9,s6
     54c:	00f7f793          	andi	a5,a5,15
     550:	00fb87b3          	add	a5,s7,a5
     554:	0007c503          	lbu	a0,0(a5)
     558:	ffcb0b13          	addi	s6,s6,-4
     55c:	b35ff0ef          	jal	90 <term_putchar>
     560:	ff8b14e3          	bne	s6,s8,548 <term_printf+0x200>
     564:	01c12b83          	lw	s7,28(sp)
     568:	01812c03          	lw	s8,24(sp)
     56c:	e85ff06f          	j	3f0 <term_printf+0xa8>
     570:	00012783          	lw	a5,0(sp)
     574:	0007a703          	lw	a4,0(a5)
     578:	00478793          	addi	a5,a5,4
     57c:	00f12023          	sw	a5,0(sp)
     580:	12070a63          	beqz	a4,6b4 <term_printf+0x36c>
     584:	01712e23          	sw	s7,28(sp)
     588:	00900693          	li	a3,9
     58c:	00000b13          	li	s6,0
     590:	00410b93          	addi	s7,sp,4
     594:	02e6f663          	bgeu	a3,a4,5c0 <term_printf+0x278>
     598:	00070793          	mv	a5,a4
     59c:	00000713          	li	a4,0
     5a0:	ff678793          	addi	a5,a5,-10
     5a4:	00170713          	addi	a4,a4,1
     5a8:	fef6ece3          	bltu	a3,a5,5a0 <term_printf+0x258>
     5ac:	001b0b13          	addi	s6,s6,1
     5b0:	03078793          	addi	a5,a5,48
     5b4:	016b8633          	add	a2,s7,s6
     5b8:	fef60fa3          	sb	a5,-1(a2)
     5bc:	fce6eee3          	bltu	a3,a4,598 <term_printf+0x250>
     5c0:	002b07b3          	add	a5,s6,sp
     5c4:	03070713          	addi	a4,a4,48
     5c8:	00e78223          	sb	a4,4(a5)
     5cc:	016b8b33          	add	s6,s7,s6
     5d0:	000b4503          	lbu	a0,0(s6)
     5d4:	abdff0ef          	jal	90 <term_putchar>
     5d8:	000b0793          	mv	a5,s6
     5dc:	fffb0b13          	addi	s6,s6,-1
     5e0:	fefb98e3          	bne	s7,a5,5d0 <term_printf+0x288>
     5e4:	01c12b83          	lw	s7,28(sp)
     5e8:	e09ff06f          	j	3f0 <term_printf+0xa8>
     5ec:	00012783          	lw	a5,0(sp)
     5f0:	0007ab03          	lw	s6,0(a5)
     5f4:	00478793          	addi	a5,a5,4
     5f8:	00f12023          	sw	a5,0(sp)
     5fc:	0c0b0263          	beqz	s6,6c0 <term_printf+0x378>
     600:	000b4503          	lbu	a0,0(s6)
     604:	de0506e3          	beqz	a0,3f0 <term_printf+0xa8>
     608:	001b0b13          	addi	s6,s6,1
     60c:	a85ff0ef          	jal	90 <term_putchar>
     610:	000b4503          	lbu	a0,0(s6)
     614:	fe051ae3          	bnez	a0,608 <term_printf+0x2c0>
     618:	dd9ff06f          	j	3f0 <term_printf+0xa8>
     61c:	00012783          	lw	a5,0(sp)
     620:	0007c503          	lbu	a0,0(a5)
     624:	00478793          	addi	a5,a5,4
     628:	00f12023          	sw	a5,0(sp)
     62c:	a65ff0ef          	jal	90 <term_putchar>
     630:	dc1ff06f          	j	3f0 <term_printf+0xa8>
     634:	00012783          	lw	a5,0(sp)
     638:	01c00b13          	li	s6,28
     63c:	ffc00713          	li	a4,-4
     640:	0007ac83          	lw	s9,0(a5)
     644:	00478793          	addi	a5,a5,4
     648:	00f12023          	sw	a5,0(sp)
     64c:	000c9863          	bnez	s9,65c <term_printf+0x314>
     650:	0640006f          	j	6b4 <term_printf+0x36c>
     654:	ffcb0b13          	addi	s6,s6,-4
     658:	d8eb0ce3          	beq	s6,a4,3f0 <term_printf+0xa8>
     65c:	016cd7b3          	srl	a5,s9,s6
     660:	00f7f793          	andi	a5,a5,15
     664:	fe0788e3          	beqz	a5,654 <term_printf+0x30c>
     668:	01812c23          	sw	s8,24(sp)
     66c:	00001c37          	lui	s8,0x1
     670:	01712e23          	sw	s7,28(sp)
     674:	fd0c0b93          	addi	s7,s8,-48 # fd0 <__clzsi2+0x98>
     678:	ffc00c13          	li	s8,-4
     67c:	00c0006f          	j	688 <term_printf+0x340>
     680:	016cd7b3          	srl	a5,s9,s6
     684:	00f7f793          	andi	a5,a5,15
     688:	00fb87b3          	add	a5,s7,a5
     68c:	0007c503          	lbu	a0,0(a5)
     690:	ffcb0b13          	addi	s6,s6,-4
     694:	9fdff0ef          	jal	90 <term_putchar>
     698:	ff8b14e3          	bne	s6,s8,680 <term_printf+0x338>
     69c:	01c12b83          	lw	s7,28(sp)
     6a0:	01812c03          	lw	s8,24(sp)
     6a4:	d4dff06f          	j	3f0 <term_printf+0xa8>
     6a8:	00040513          	mv	a0,s0
     6ac:	9e5ff0ef          	jal	90 <term_putchar>
     6b0:	d41ff06f          	j	3f0 <term_printf+0xa8>
     6b4:	03000513          	li	a0,48
     6b8:	9d9ff0ef          	jal	90 <term_putchar>
     6bc:	d35ff06f          	j	3f0 <term_printf+0xa8>
     6c0:	00001b37          	lui	s6,0x1
     6c4:	fc8b0b13          	addi	s6,s6,-56 # fc8 <__clzsi2+0x90>
     6c8:	02800513          	li	a0,40
     6cc:	001b0b13          	addi	s6,s6,1
     6d0:	9c1ff0ef          	jal	90 <term_putchar>
     6d4:	000b4503          	lbu	a0,0(s6)
     6d8:	fe051ae3          	bnez	a0,6cc <term_printf+0x384>
     6dc:	d15ff06f          	j	3f0 <term_printf+0xa8>
     6e0:	fff68693          	addi	a3,a3,-1
     6e4:	da06dee3          	bgez	a3,4a0 <term_printf+0x158>
     6e8:	dddff06f          	j	4c4 <term_printf+0x17c>
     6ec:	00001c37          	lui	s8,0x1
     6f0:	fd0c0c13          	addi	s8,s8,-48 # fd0 <__clzsi2+0x98>
     6f4:	da1ff06f          	j	494 <term_printf+0x14c>

000006f8 <dataslot_wait_ready>:
     6f8:	05f5e737          	lui	a4,0x5f5e
     6fc:	10070713          	addi	a4,a4,256 # 5f5e100 <__sdram_size+0x1f5e100>
     700:	400006b7          	lui	a3,0x40000
     704:	0080006f          	j	70c <dataslot_wait_ready+0x14>
     708:	00070e63          	beqz	a4,724 <dataslot_wait_ready+0x2c>
     70c:	0006a783          	lw	a5,0(a3) # 40000000 <__heap_end+0x2c000000>
     710:	fff70713          	addi	a4,a4,-1
     714:	0027f793          	andi	a5,a5,2
     718:	fe0788e3          	beqz	a5,708 <dataslot_wait_ready+0x10>
     71c:	00000513          	li	a0,0
     720:	00008067          	ret
     724:	fff00513          	li	a0,-1
     728:	00008067          	ret

0000072c <memtest_main>:
     72c:	00001537          	lui	a0,0x1
     730:	fa010113          	addi	sp,sp,-96
     734:	ff850513          	addi	a0,a0,-8 # ff8 <__clzsi2+0xc0>
     738:	04112e23          	sw	ra,92(sp)
     73c:	c0dff0ef          	jal	348 <term_printf>
     740:	40000737          	lui	a4,0x40000
     744:	00072783          	lw	a5,0(a4) # 40000000 <__heap_end+0x2c000000>
     748:	0017f793          	andi	a5,a5,1
     74c:	fe078ce3          	beqz	a5,744 <memtest_main+0x18>
     750:	fa9ff0ef          	jal	6f8 <dataslot_wait_ready>
     754:	00001537          	lui	a0,0x1
     758:	01450513          	addi	a0,a0,20 # 1014 <__clzsi2+0xdc>
     75c:	bedff0ef          	jal	348 <term_printf>
     760:	00001537          	lui	a0,0x1
     764:	02850513          	addi	a0,a0,40 # 1028 <__clzsi2+0xf0>
     768:	00100693          	li	a3,1
     76c:	12200637          	lui	a2,0x12200
     770:	121005b7          	lui	a1,0x12100
     774:	bd5ff0ef          	jal	348 <term_printf>
     778:	deadc7b7          	lui	a5,0xdeadc
     77c:	12100737          	lui	a4,0x12100
     780:	eef78793          	addi	a5,a5,-273 # deadbeef <__heap_end+0xcaadbeef>
     784:	00f72023          	sw	a5,0(a4) # 12100000 <__heap_start+0x2100000>
     788:	00072703          	lw	a4,0(a4)
     78c:	00f70a63          	beq	a4,a5,7a0 <memtest_main+0x74>
     790:	00001537          	lui	a0,0x1
     794:	04850513          	addi	a0,a0,72 # 1048 <__clzsi2+0x110>
     798:	bb1ff0ef          	jal	348 <term_printf>
     79c:	0000006f          	j	79c <memtest_main+0x70>
     7a0:	00001537          	lui	a0,0x1
     7a4:	06450513          	addi	a0,a0,100 # 1064 <__clzsi2+0x12c>
     7a8:	05312623          	sw	s3,76(sp)
     7ac:	05412423          	sw	s4,72(sp)
     7b0:	05512223          	sw	s5,68(sp)
     7b4:	05612023          	sw	s6,64(sp)
     7b8:	03a12823          	sw	s10,48(sp)
     7bc:	04812c23          	sw	s0,88(sp)
     7c0:	04912a23          	sw	s1,84(sp)
     7c4:	05212823          	sw	s2,80(sp)
     7c8:	03712e23          	sw	s7,60(sp)
     7cc:	03812c23          	sw	s8,56(sp)
     7d0:	03912a23          	sw	s9,52(sp)
     7d4:	03b12623          	sw	s11,44(sp)
     7d8:	b71ff0ef          	jal	348 <term_printf>
     7dc:	5a5a67b7          	lui	a5,0x5a5a6
     7e0:	a5a78793          	addi	a5,a5,-1446 # 5a5a5a5a <__heap_end+0x465a5a5a>
     7e4:	fff00713          	li	a4,-1
     7e8:	00f12a23          	sw	a5,20(sp)
     7ec:	01410793          	addi	a5,sp,20
     7f0:	00012e23          	sw	zero,28(sp)
     7f4:	00e12c23          	sw	a4,24(sp)
     7f8:	00f12223          	sw	a5,4(sp)
     7fc:	00012023          	sw	zero,0(sp)
     800:	000019b7          	lui	s3,0x1
     804:	00001b37          	lui	s6,0x1
     808:	00004d37          	lui	s10,0x4
     80c:	00010a37          	lui	s4,0x10
     810:	01000a93          	li	s5,16
     814:	00412783          	lw	a5,4(sp)
     818:	12100437          	lui	s0,0x12100
     81c:	00000493          	li	s1,0
     820:	0007ad83          	lw	s11,0(a5)
     824:	00012783          	lw	a5,0(sp)
     828:	00000913          	li	s2,0
     82c:	000d8613          	mv	a2,s11
     830:	00178793          	addi	a5,a5,1
     834:	00f12023          	sw	a5,0(sp)
     838:	00078593          	mv	a1,a5
     83c:	000017b7          	lui	a5,0x1
     840:	07478513          	addi	a0,a5,116 # 1074 <__clzsi2+0x13c>
     844:	b05ff0ef          	jal	348 <term_printf>
     848:	00040713          	mv	a4,s0
     84c:	00000793          	li	a5,0
     850:	00fdc6b3          	xor	a3,s11,a5
     854:	00d72023          	sw	a3,0(a4)
     858:	00178793          	addi	a5,a5,1
     85c:	00470713          	addi	a4,a4,4
     860:	ffa798e3          	bne	a5,s10,850 <memtest_main+0x124>
     864:	00040b93          	mv	s7,s0
     868:	00000c13          	li	s8,0
     86c:	00000c93          	li	s9,0
     870:	000ba683          	lw	a3,0(s7)
     874:	019dc633          	xor	a2,s11,s9
     878:	00d60663          	beq	a2,a3,884 <memtest_main+0x158>
     87c:	160c0c63          	beqz	s8,9f4 <memtest_main+0x2c8>
     880:	001c0c13          	addi	s8,s8,1
     884:	001c8c93          	addi	s9,s9,1
     888:	004b8b93          	addi	s7,s7,4
     88c:	ffac92e3          	bne	s9,s10,870 <memtest_main+0x144>
     890:	0034f793          	andi	a5,s1,3
     894:	01890933          	add	s2,s2,s8
     898:	16078663          	beqz	a5,a04 <memtest_main+0x2d8>
     89c:	00148493          	addi	s1,s1,1
     8a0:	01440433          	add	s0,s0,s4
     8a4:	fb5492e3          	bne	s1,s5,848 <memtest_main+0x11c>
     8a8:	16091863          	bnez	s2,a18 <memtest_main+0x2ec>
     8ac:	000017b7          	lui	a5,0x1
     8b0:	0a878513          	addi	a0,a5,168 # 10a8 <__clzsi2+0x170>
     8b4:	a95ff0ef          	jal	348 <term_printf>
     8b8:	00001737          	lui	a4,0x1
     8bc:	2bc72783          	lw	a5,700(a4) # 12bc <total_errors>
     8c0:	00412683          	lw	a3,4(sp)
     8c4:	012787b3          	add	a5,a5,s2
     8c8:	2af72e23          	sw	a5,700(a4)
     8cc:	00012783          	lw	a5,0(sp)
     8d0:	00468693          	addi	a3,a3,4
     8d4:	00d12223          	sw	a3,4(sp)
     8d8:	00300713          	li	a4,3
     8dc:	f2e79ce3          	bne	a5,a4,814 <memtest_main+0xe8>
     8e0:	00001537          	lui	a0,0x1
     8e4:	fc450513          	addi	a0,a0,-60 # fc4 <__clzsi2+0x8c>
     8e8:	a61ff0ef          	jal	348 <term_printf>
     8ec:	12100737          	lui	a4,0x12100
     8f0:	00000793          	li	a5,0
     8f4:	40000693          	li	a3,1024
     8f8:	00f72023          	sw	a5,0(a4) # 12100000 <__heap_start+0x2100000>
     8fc:	00178793          	addi	a5,a5,1
     900:	00470713          	addi	a4,a4,4
     904:	fed79ae3          	bne	a5,a3,8f8 <memtest_main+0x1cc>
     908:	400007b7          	lui	a5,0x40000
     90c:	0047a583          	lw	a1,4(a5) # 40000004 <__heap_end+0x2c000004>
     910:	12101637          	lui	a2,0x12101
     914:	121007b7          	lui	a5,0x12100
     918:	00012823          	sw	zero,16(sp)
     91c:	0007a703          	lw	a4,0(a5) # 12100000 <__heap_start+0x2100000>
     920:	01012683          	lw	a3,16(sp)
     924:	00478793          	addi	a5,a5,4
     928:	00d70733          	add	a4,a4,a3
     92c:	00e12823          	sw	a4,16(sp)
     930:	fec796e3          	bne	a5,a2,91c <memtest_main+0x1f0>
     934:	400007b7          	lui	a5,0x40000
     938:	0047a403          	lw	s0,4(a5) # 40000004 <__heap_end+0x2c000004>
     93c:	12100737          	lui	a4,0x12100
     940:	0047a603          	lw	a2,4(a5)
     944:	40b40433          	sub	s0,s0,a1
     948:	00000793          	li	a5,0
     94c:	40000693          	li	a3,1024
     950:	00f72023          	sw	a5,0(a4) # 12100000 <__heap_start+0x2100000>
     954:	00178793          	addi	a5,a5,1
     958:	00470713          	addi	a4,a4,4
     95c:	fed79ae3          	bne	a5,a3,950 <memtest_main+0x224>
     960:	400007b7          	lui	a5,0x40000
     964:	0047a503          	lw	a0,4(a5) # 40000004 <__heap_end+0x2c000004>
     968:	00001937          	lui	s2,0x1
     96c:	40c50533          	sub	a0,a0,a2
     970:	3f8000ef          	jal	d68 <__floatunsisf>
     974:	2b492583          	lw	a1,692(s2) # 12b4 <__text_end>
     978:	0d4000ef          	jal	a4c <__mulsf3>
     97c:	4d0000ef          	jal	e4c <__extendsfdf2>
     980:	00050493          	mv	s1,a0
     984:	00040513          	mv	a0,s0
     988:	00058413          	mv	s0,a1
     98c:	3dc000ef          	jal	d68 <__floatunsisf>
     990:	2b492583          	lw	a1,692(s2)
     994:	0b8000ef          	jal	a4c <__mulsf3>
     998:	4b4000ef          	jal	e4c <__extendsfdf2>
     99c:	00912423          	sw	s1,8(sp)
     9a0:	00812623          	sw	s0,12(sp)
     9a4:	00c12783          	lw	a5,12(sp)
     9a8:	00812703          	lw	a4,8(sp)
     9ac:	00050613          	mv	a2,a0
     9b0:	00001537          	lui	a0,0x1
     9b4:	00058693          	mv	a3,a1
     9b8:	0bc50513          	addi	a0,a0,188 # 10bc <__clzsi2+0x184>
     9bc:	98dff0ef          	jal	348 <term_printf>
     9c0:	00001537          	lui	a0,0x1
     9c4:	0dc50513          	addi	a0,a0,220 # 10dc <__clzsi2+0x1a4>
     9c8:	981ff0ef          	jal	348 <term_printf>
     9cc:	000017b7          	lui	a5,0x1
     9d0:	2bc7a583          	lw	a1,700(a5) # 12bc <total_errors>
     9d4:	04058c63          	beqz	a1,a2c <memtest_main+0x300>
     9d8:	00001537          	lui	a0,0x1
     9dc:	11c50513          	addi	a0,a0,284 # 111c <__clzsi2+0x1e4>
     9e0:	969ff0ef          	jal	348 <term_printf>
     9e4:	00001537          	lui	a0,0x1
     9e8:	12850513          	addi	a0,a0,296 # 1128 <__clzsi2+0x1f0>
     9ec:	95dff0ef          	jal	348 <term_printf>
     9f0:	0000006f          	j	9f0 <memtest_main+0x2c4>
     9f4:	000b8593          	mv	a1,s7
     9f8:	08898513          	addi	a0,s3,136 # 1088 <__clzsi2+0x150>
     9fc:	94dff0ef          	jal	348 <term_printf>
     a00:	e81ff06f          	j	880 <memtest_main+0x154>
     a04:	0a4b0513          	addi	a0,s6,164 # 10a4 <__clzsi2+0x16c>
     a08:	941ff0ef          	jal	348 <term_printf>
     a0c:	00148493          	addi	s1,s1,1
     a10:	01440433          	add	s0,s0,s4
     a14:	e35ff06f          	j	848 <memtest_main+0x11c>
     a18:	000017b7          	lui	a5,0x1
     a1c:	00090593          	mv	a1,s2
     a20:	0b078513          	addi	a0,a5,176 # 10b0 <__clzsi2+0x178>
     a24:	925ff0ef          	jal	348 <term_printf>
     a28:	e91ff06f          	j	8b8 <memtest_main+0x18c>
     a2c:	00001537          	lui	a0,0x1
     a30:	0f450513          	addi	a0,a0,244 # 10f4 <__clzsi2+0x1bc>
     a34:	915ff0ef          	jal	348 <term_printf>
     a38:	00001537          	lui	a0,0x1
     a3c:	10850513          	addi	a0,a0,264 # 1108 <__clzsi2+0x1d0>
     a40:	00100593          	li	a1,1
     a44:	905ff0ef          	jal	348 <term_printf>
     a48:	f9dff06f          	j	9e4 <memtest_main+0x2b8>

00000a4c <__mulsf3>:
     a4c:	fe010113          	addi	sp,sp,-32
     a50:	01212823          	sw	s2,16(sp)
     a54:	01755913          	srli	s2,a0,0x17
     a58:	00912a23          	sw	s1,20(sp)
     a5c:	01312623          	sw	s3,12(sp)
     a60:	01512223          	sw	s5,4(sp)
     a64:	00951493          	slli	s1,a0,0x9
     a68:	00112e23          	sw	ra,28(sp)
     a6c:	00812c23          	sw	s0,24(sp)
     a70:	01412423          	sw	s4,8(sp)
     a74:	0ff97913          	zext.b	s2,s2
     a78:	00058a93          	mv	s5,a1
     a7c:	0094d493          	srli	s1,s1,0x9
     a80:	01f55993          	srli	s3,a0,0x1f
     a84:	18090463          	beqz	s2,c0c <__mulsf3+0x1c0>
     a88:	0ff00793          	li	a5,255
     a8c:	1af90063          	beq	s2,a5,c2c <__mulsf3+0x1e0>
     a90:	00349493          	slli	s1,s1,0x3
     a94:	040007b7          	lui	a5,0x4000
     a98:	00f4e4b3          	or	s1,s1,a5
     a9c:	f8190913          	addi	s2,s2,-127
     aa0:	00000a13          	li	s4,0
     aa4:	017ad793          	srli	a5,s5,0x17
     aa8:	009a9413          	slli	s0,s5,0x9
     aac:	0ff7f793          	zext.b	a5,a5
     ab0:	00945413          	srli	s0,s0,0x9
     ab4:	01fada93          	srli	s5,s5,0x1f
     ab8:	18078863          	beqz	a5,c48 <__mulsf3+0x1fc>
     abc:	0ff00713          	li	a4,255
     ac0:	1ae78463          	beq	a5,a4,c68 <__mulsf3+0x21c>
     ac4:	00341413          	slli	s0,s0,0x3
     ac8:	04000737          	lui	a4,0x4000
     acc:	00e46433          	or	s0,s0,a4
     ad0:	f8178793          	addi	a5,a5,-127 # 3ffff81 <__stack_top+0x3feff81>
     ad4:	00000713          	li	a4,0
     ad8:	00f90933          	add	s2,s2,a5
     adc:	002a1793          	slli	a5,s4,0x2
     ae0:	00e7e7b3          	or	a5,a5,a4
     ae4:	00a00693          	li	a3,10
     ae8:	00190613          	addi	a2,s2,1
     aec:	1cf6ce63          	blt	a3,a5,cc8 <__mulsf3+0x27c>
     af0:	00200593          	li	a1,2
     af4:	0159c9b3          	xor	s3,s3,s5
     af8:	00100693          	li	a3,1
     afc:	18f5c463          	blt	a1,a5,c84 <__mulsf3+0x238>
     b00:	fff78793          	addi	a5,a5,-1
     b04:	1af6f063          	bgeu	a3,a5,ca4 <__mulsf3+0x258>
     b08:	0104d713          	srli	a4,s1,0x10
     b0c:	01045793          	srli	a5,s0,0x10
     b10:	01049493          	slli	s1,s1,0x10
     b14:	01041413          	slli	s0,s0,0x10
     b18:	0104d493          	srli	s1,s1,0x10
     b1c:	01045413          	srli	s0,s0,0x10
     b20:	029405b3          	mul	a1,s0,s1
     b24:	02870433          	mul	s0,a4,s0
     b28:	02f70733          	mul	a4,a4,a5
     b2c:	029787b3          	mul	a5,a5,s1
     b30:	008786b3          	add	a3,a5,s0
     b34:	0105d793          	srli	a5,a1,0x10
     b38:	00d787b3          	add	a5,a5,a3
     b3c:	0087f663          	bgeu	a5,s0,b48 <__mulsf3+0xfc>
     b40:	000106b7          	lui	a3,0x10
     b44:	00d70733          	add	a4,a4,a3
     b48:	01059593          	slli	a1,a1,0x10
     b4c:	01079693          	slli	a3,a5,0x10
     b50:	0105d593          	srli	a1,a1,0x10
     b54:	00b686b3          	add	a3,a3,a1
     b58:	0107d793          	srli	a5,a5,0x10
     b5c:	00669413          	slli	s0,a3,0x6
     b60:	00e787b3          	add	a5,a5,a4
     b64:	00679793          	slli	a5,a5,0x6
     b68:	00803433          	snez	s0,s0
     b6c:	01a6d693          	srli	a3,a3,0x1a
     b70:	00d46433          	or	s0,s0,a3
     b74:	00479713          	slli	a4,a5,0x4
     b78:	0087e433          	or	s0,a5,s0
     b7c:	16075463          	bgez	a4,ce4 <__mulsf3+0x298>
     b80:	00145793          	srli	a5,s0,0x1
     b84:	00147413          	andi	s0,s0,1
     b88:	0087e433          	or	s0,a5,s0
     b8c:	07f60713          	addi	a4,a2,127 # 1210107f <__heap_start+0x210107f>
     b90:	14e05e63          	blez	a4,cec <__mulsf3+0x2a0>
     b94:	00747793          	andi	a5,s0,7
     b98:	00078a63          	beqz	a5,bac <__mulsf3+0x160>
     b9c:	00f47793          	andi	a5,s0,15
     ba0:	00400693          	li	a3,4
     ba4:	00d78463          	beq	a5,a3,bac <__mulsf3+0x160>
     ba8:	00d40433          	add	s0,s0,a3
     bac:	00441793          	slli	a5,s0,0x4
     bb0:	0007da63          	bgez	a5,bc4 <__mulsf3+0x178>
     bb4:	f80007b7          	lui	a5,0xf8000
     bb8:	fff78793          	addi	a5,a5,-1 # f7ffffff <__heap_end+0xe3ffffff>
     bbc:	00f47433          	and	s0,s0,a5
     bc0:	08060713          	addi	a4,a2,128
     bc4:	0fe00793          	li	a5,254
     bc8:	18e7ca63          	blt	a5,a4,d5c <__mulsf3+0x310>
     bcc:	00345793          	srli	a5,s0,0x3
     bd0:	01c12083          	lw	ra,28(sp)
     bd4:	01812403          	lw	s0,24(sp)
     bd8:	00979793          	slli	a5,a5,0x9
     bdc:	01771713          	slli	a4,a4,0x17
     be0:	0097d793          	srli	a5,a5,0x9
     be4:	01f99993          	slli	s3,s3,0x1f
     be8:	00f76733          	or	a4,a4,a5
     bec:	01412483          	lw	s1,20(sp)
     bf0:	01012903          	lw	s2,16(sp)
     bf4:	00812a03          	lw	s4,8(sp)
     bf8:	00412a83          	lw	s5,4(sp)
     bfc:	01376533          	or	a0,a4,s3
     c00:	00c12983          	lw	s3,12(sp)
     c04:	02010113          	addi	sp,sp,32
     c08:	00008067          	ret
     c0c:	02048863          	beqz	s1,c3c <__mulsf3+0x1f0>
     c10:	00048513          	mv	a0,s1
     c14:	324000ef          	jal	f38 <__clzsi2>
     c18:	ffb50793          	addi	a5,a0,-5
     c1c:	f8a00913          	li	s2,-118
     c20:	00f494b3          	sll	s1,s1,a5
     c24:	40a90933          	sub	s2,s2,a0
     c28:	e79ff06f          	j	aa0 <__mulsf3+0x54>
     c2c:	00200a13          	li	s4,2
     c30:	e6048ae3          	beqz	s1,aa4 <__mulsf3+0x58>
     c34:	00300a13          	li	s4,3
     c38:	e6dff06f          	j	aa4 <__mulsf3+0x58>
     c3c:	00000913          	li	s2,0
     c40:	00100a13          	li	s4,1
     c44:	e61ff06f          	j	aa4 <__mulsf3+0x58>
     c48:	02040863          	beqz	s0,c78 <__mulsf3+0x22c>
     c4c:	00040513          	mv	a0,s0
     c50:	2e8000ef          	jal	f38 <__clzsi2>
     c54:	ffb50793          	addi	a5,a0,-5
     c58:	00f41433          	sll	s0,s0,a5
     c5c:	f8a00793          	li	a5,-118
     c60:	40a787b3          	sub	a5,a5,a0
     c64:	e71ff06f          	j	ad4 <__mulsf3+0x88>
     c68:	00200713          	li	a4,2
     c6c:	e60406e3          	beqz	s0,ad8 <__mulsf3+0x8c>
     c70:	00300713          	li	a4,3
     c74:	e65ff06f          	j	ad8 <__mulsf3+0x8c>
     c78:	00000793          	li	a5,0
     c7c:	00100713          	li	a4,1
     c80:	e59ff06f          	j	ad8 <__mulsf3+0x8c>
     c84:	00f697b3          	sll	a5,a3,a5
     c88:	5307f693          	andi	a3,a5,1328
     c8c:	04069663          	bnez	a3,cd8 <__mulsf3+0x28c>
     c90:	2407f693          	andi	a3,a5,576
     c94:	0a069c63          	bnez	a3,d4c <__mulsf3+0x300>
     c98:	0887f793          	andi	a5,a5,136
     c9c:	e60786e3          	beqz	a5,b08 <__mulsf3+0xbc>
     ca0:	000a8993          	mv	s3,s5
     ca4:	00200793          	li	a5,2
     ca8:	0af70a63          	beq	a4,a5,d5c <__mulsf3+0x310>
     cac:	00300793          	li	a5,3
     cb0:	08f70e63          	beq	a4,a5,d4c <__mulsf3+0x300>
     cb4:	00100793          	li	a5,1
     cb8:	ecf71ae3          	bne	a4,a5,b8c <__mulsf3+0x140>
     cbc:	00000793          	li	a5,0
     cc0:	00000713          	li	a4,0
     cc4:	f0dff06f          	j	bd0 <__mulsf3+0x184>
     cc8:	00f00693          	li	a3,15
     ccc:	08d78063          	beq	a5,a3,d4c <__mulsf3+0x300>
     cd0:	00b00693          	li	a3,11
     cd4:	fcd786e3          	beq	a5,a3,ca0 <__mulsf3+0x254>
     cd8:	00048413          	mv	s0,s1
     cdc:	000a0713          	mv	a4,s4
     ce0:	fc5ff06f          	j	ca4 <__mulsf3+0x258>
     ce4:	00090613          	mv	a2,s2
     ce8:	ea5ff06f          	j	b8c <__mulsf3+0x140>
     cec:	00100693          	li	a3,1
     cf0:	00070c63          	beqz	a4,d08 <__mulsf3+0x2bc>
     cf4:	40e686b3          	sub	a3,a3,a4
     cf8:	01b00593          	li	a1,27
     cfc:	00000793          	li	a5,0
     d00:	00000713          	li	a4,0
     d04:	ecd5c6e3          	blt	a1,a3,bd0 <__mulsf3+0x184>
     d08:	09e60613          	addi	a2,a2,158
     d0c:	00d456b3          	srl	a3,s0,a3
     d10:	00c41433          	sll	s0,s0,a2
     d14:	00803433          	snez	s0,s0
     d18:	0086e7b3          	or	a5,a3,s0
     d1c:	0077f713          	andi	a4,a5,7
     d20:	00070a63          	beqz	a4,d34 <__mulsf3+0x2e8>
     d24:	00f7f713          	andi	a4,a5,15
     d28:	00400693          	li	a3,4
     d2c:	00d70463          	beq	a4,a3,d34 <__mulsf3+0x2e8>
     d30:	00d787b3          	add	a5,a5,a3
     d34:	00579713          	slli	a4,a5,0x5
     d38:	0037d793          	srli	a5,a5,0x3
     d3c:	f80752e3          	bgez	a4,cc0 <__mulsf3+0x274>
     d40:	00000793          	li	a5,0
     d44:	00100713          	li	a4,1
     d48:	e89ff06f          	j	bd0 <__mulsf3+0x184>
     d4c:	004007b7          	lui	a5,0x400
     d50:	0ff00713          	li	a4,255
     d54:	00000993          	li	s3,0
     d58:	e79ff06f          	j	bd0 <__mulsf3+0x184>
     d5c:	00000793          	li	a5,0
     d60:	0ff00713          	li	a4,255
     d64:	e6dff06f          	j	bd0 <__mulsf3+0x184>

00000d68 <__floatunsisf>:
     d68:	ff010113          	addi	sp,sp,-16
     d6c:	00812423          	sw	s0,8(sp)
     d70:	00112623          	sw	ra,12(sp)
     d74:	00050413          	mv	s0,a0
     d78:	00000713          	li	a4,0
     d7c:	02050463          	beqz	a0,da4 <__floatunsisf+0x3c>
     d80:	1b8000ef          	jal	f38 <__clzsi2>
     d84:	09e00713          	li	a4,158
     d88:	40a70733          	sub	a4,a4,a0
     d8c:	09600793          	li	a5,150
     d90:	02e7ca63          	blt	a5,a4,dc4 <__floatunsisf+0x5c>
     d94:	00800693          	li	a3,8
     d98:	0ad50663          	beq	a0,a3,e44 <__floatunsisf+0xdc>
     d9c:	ff850513          	addi	a0,a0,-8
     da0:	00a41433          	sll	s0,s0,a0
     da4:	00941413          	slli	s0,s0,0x9
     da8:	00945413          	srli	s0,s0,0x9
     dac:	01771513          	slli	a0,a4,0x17
     db0:	00c12083          	lw	ra,12(sp)
     db4:	00856533          	or	a0,a0,s0
     db8:	00812403          	lw	s0,8(sp)
     dbc:	01010113          	addi	sp,sp,16
     dc0:	00008067          	ret
     dc4:	09900793          	li	a5,153
     dc8:	06e7d463          	bge	a5,a4,e30 <__floatunsisf+0xc8>
     dcc:	01b50793          	addi	a5,a0,27
     dd0:	00500693          	li	a3,5
     dd4:	00f417b3          	sll	a5,s0,a5
     dd8:	40a686b3          	sub	a3,a3,a0
     ddc:	00f037b3          	snez	a5,a5
     de0:	00d45433          	srl	s0,s0,a3
     de4:	0087e7b3          	or	a5,a5,s0
     de8:	fc000437          	lui	s0,0xfc000
     dec:	fff40413          	addi	s0,s0,-1 # fbffffff <__heap_end+0xe7ffffff>
     df0:	0077f693          	andi	a3,a5,7
     df4:	0087f433          	and	s0,a5,s0
     df8:	04068263          	beqz	a3,e3c <__floatunsisf+0xd4>
     dfc:	00f7f793          	andi	a5,a5,15
     e00:	00400693          	li	a3,4
     e04:	02d78c63          	beq	a5,a3,e3c <__floatunsisf+0xd4>
     e08:	00d40433          	add	s0,s0,a3
     e0c:	00541693          	slli	a3,s0,0x5
     e10:	00345793          	srli	a5,s0,0x3
     e14:	0206d463          	bgez	a3,e3c <__floatunsisf+0xd4>
     e18:	1f800437          	lui	s0,0x1f800
     e1c:	09f00713          	li	a4,159
     e20:	fff40413          	addi	s0,s0,-1 # 1f7fffff <__heap_end+0xb7fffff>
     e24:	40a70733          	sub	a4,a4,a0
     e28:	0087f433          	and	s0,a5,s0
     e2c:	f79ff06f          	j	da4 <__floatunsisf+0x3c>
     e30:	ffb50793          	addi	a5,a0,-5
     e34:	00f417b3          	sll	a5,s0,a5
     e38:	fb1ff06f          	j	de8 <__floatunsisf+0x80>
     e3c:	00345413          	srli	s0,s0,0x3
     e40:	f65ff06f          	j	da4 <__floatunsisf+0x3c>
     e44:	00078713          	mv	a4,a5
     e48:	f5dff06f          	j	da4 <__floatunsisf+0x3c>

00000e4c <__extendsfdf2>:
     e4c:	01755713          	srli	a4,a0,0x17
     e50:	0ff77713          	zext.b	a4,a4
     e54:	fe010113          	addi	sp,sp,-32
     e58:	00170793          	addi	a5,a4,1 # 4000001 <__sdram_size+0x1>
     e5c:	00812c23          	sw	s0,24(sp)
     e60:	00912a23          	sw	s1,20(sp)
     e64:	00951413          	slli	s0,a0,0x9
     e68:	00112e23          	sw	ra,28(sp)
     e6c:	01212823          	sw	s2,16(sp)
     e70:	01312623          	sw	s3,12(sp)
     e74:	0fe7f793          	andi	a5,a5,254
     e78:	00945413          	srli	s0,s0,0x9
     e7c:	01f55493          	srli	s1,a0,0x1f
     e80:	04078663          	beqz	a5,ecc <__extendsfdf2+0x80>
     e84:	00345793          	srli	a5,s0,0x3
     e88:	38070713          	addi	a4,a4,896
     e8c:	01d41413          	slli	s0,s0,0x1d
     e90:	00c79793          	slli	a5,a5,0xc
     e94:	00c7d793          	srli	a5,a5,0xc
     e98:	01471713          	slli	a4,a4,0x14
     e9c:	01f49513          	slli	a0,s1,0x1f
     ea0:	00f76733          	or	a4,a4,a5
     ea4:	01c12083          	lw	ra,28(sp)
     ea8:	00a767b3          	or	a5,a4,a0
     eac:	00040513          	mv	a0,s0
     eb0:	01812403          	lw	s0,24(sp)
     eb4:	01412483          	lw	s1,20(sp)
     eb8:	01012903          	lw	s2,16(sp)
     ebc:	00c12983          	lw	s3,12(sp)
     ec0:	00078593          	mv	a1,a5
     ec4:	02010113          	addi	sp,sp,32
     ec8:	00008067          	ret
     ecc:	04071663          	bnez	a4,f18 <__extendsfdf2+0xcc>
     ed0:	00000793          	li	a5,0
     ed4:	fa040ee3          	beqz	s0,e90 <__extendsfdf2+0x44>
     ed8:	00040513          	mv	a0,s0
     edc:	05c000ef          	jal	f38 <__clzsi2>
     ee0:	00a00793          	li	a5,10
     ee4:	02a7c263          	blt	a5,a0,f08 <__extendsfdf2+0xbc>
     ee8:	00b00793          	li	a5,11
     eec:	40a787b3          	sub	a5,a5,a0
     ef0:	01550713          	addi	a4,a0,21
     ef4:	00f457b3          	srl	a5,s0,a5
     ef8:	00e41433          	sll	s0,s0,a4
     efc:	38900713          	li	a4,905
     f00:	40a70733          	sub	a4,a4,a0
     f04:	f8dff06f          	j	e90 <__extendsfdf2+0x44>
     f08:	ff550793          	addi	a5,a0,-11
     f0c:	00f417b3          	sll	a5,s0,a5
     f10:	00000413          	li	s0,0
     f14:	fe9ff06f          	j	efc <__extendsfdf2+0xb0>
     f18:	00000793          	li	a5,0
     f1c:	00040a63          	beqz	s0,f30 <__extendsfdf2+0xe4>
     f20:	00345793          	srli	a5,s0,0x3
     f24:	00080737          	lui	a4,0x80
     f28:	01d41413          	slli	s0,s0,0x1d
     f2c:	00e7e7b3          	or	a5,a5,a4
     f30:	7ff00713          	li	a4,2047
     f34:	f5dff06f          	j	e90 <__extendsfdf2+0x44>

00000f38 <__clzsi2>:
     f38:	000107b7          	lui	a5,0x10
     f3c:	02f57a63          	bgeu	a0,a5,f70 <__clzsi2+0x38>
     f40:	10053793          	sltiu	a5,a0,256
     f44:	0017b793          	seqz	a5,a5
     f48:	00379793          	slli	a5,a5,0x3
     f4c:	00001737          	lui	a4,0x1
     f50:	02000693          	li	a3,32
     f54:	40f686b3          	sub	a3,a3,a5
     f58:	00f55533          	srl	a0,a0,a5
     f5c:	1b470793          	addi	a5,a4,436 # 11b4 <__clz_tab>
     f60:	00a787b3          	add	a5,a5,a0
     f64:	0007c503          	lbu	a0,0(a5) # 10000 <__stack_top>
     f68:	40a68533          	sub	a0,a3,a0
     f6c:	00008067          	ret
     f70:	01000737          	lui	a4,0x1000
     f74:	01800793          	li	a5,24
     f78:	fce57ae3          	bgeu	a0,a4,f4c <__clzsi2+0x14>
     f7c:	01000793          	li	a5,16
     f80:	fcdff06f          	j	f4c <__clzsi2+0x14>
     f84:	6950                	.insn	2, 0x6950
     f86:	56526f63          	bltu	tp,t0,1504 <__bss_end+0x244>
     f8a:	6f203233          	.insn	4, 0x6f203233
     f8e:	206e                	.insn	2, 0x206e
     f90:	6e41                	.insn	2, 0x6e41
     f92:	6c61                	.insn	2, 0x6c61
     f94:	6575676f          	jal	a4,57dea <__stack_top+0x47dea>
     f98:	5020                	.insn	2, 0x5020
     f9a:	656b636f          	jal	t1,b75f0 <__stack_top+0xa75f0>
     f9e:	0a74                	.insn	2, 0x0a74
     fa0:	0000                	.insn	2, 0x
     fa2:	0000                	.insn	2, 0x
     fa4:	3d3d                	.insn	2, 0x3d3d
     fa6:	3d3d                	.insn	2, 0x3d3d
     fa8:	3d3d                	.insn	2, 0x3d3d
     faa:	3d3d                	.insn	2, 0x3d3d
     fac:	3d3d                	.insn	2, 0x3d3d
     fae:	3d3d                	.insn	2, 0x3d3d
     fb0:	3d3d                	.insn	2, 0x3d3d
     fb2:	3d3d                	.insn	2, 0x3d3d
     fb4:	3d3d                	.insn	2, 0x3d3d
     fb6:	3d3d                	.insn	2, 0x3d3d
     fb8:	3d3d                	.insn	2, 0x3d3d
     fba:	3d3d                	.insn	2, 0x3d3d
     fbc:	3d3d                	.insn	2, 0x3d3d
     fbe:	0a3d                	.insn	2, 0x0a3d
     fc0:	0000                	.insn	2, 0x
     fc2:	0000                	.insn	2, 0x
     fc4:	000a                	.insn	2, 0x000a
     fc6:	0000                	.insn	2, 0x
     fc8:	6e28                	.insn	2, 0x6e28
     fca:	6c75                	.insn	2, 0x6c75
     fcc:	296c                	.insn	2, 0x296c
     fce:	0000                	.insn	2, 0x
     fd0:	3130                	.insn	2, 0x3130
     fd2:	3332                	.insn	2, 0x3332
     fd4:	3534                	.insn	2, 0x3534
     fd6:	3736                	.insn	2, 0x3736
     fd8:	3938                	.insn	2, 0x3938
     fda:	4241                	.insn	2, 0x4241
     fdc:	46454443          	.insn	4, 0x46454443
     fe0:	0000                	.insn	2, 0x
     fe2:	0000                	.insn	2, 0x
     fe4:	3130                	.insn	2, 0x3130
     fe6:	3332                	.insn	2, 0x3332
     fe8:	3534                	.insn	2, 0x3534
     fea:	3736                	.insn	2, 0x3736
     fec:	3938                	.insn	2, 0x3938
     fee:	6261                	.insn	2, 0x6261
     ff0:	66656463          	bltu	a0,t1,1658 <__bss_end+0x398>
     ff4:	0000                	.insn	2, 0x
     ff6:	0000                	.insn	2, 0x
     ff8:	3d3d                	.insn	2, 0x3d3d
     ffa:	203d                	.insn	2, 0x203d
     ffc:	7546                	.insn	2, 0x7546
     ffe:	6c6c                	.insn	2, 0x6c6c
    1000:	5320                	.insn	2, 0x5320
    1002:	5244                	.insn	2, 0x5244
    1004:	4d41                	.insn	2, 0x4d41
    1006:	5420                	.insn	2, 0x5420
    1008:	7365                	.insn	2, 0x7365
    100a:	2074                	.insn	2, 0x2074
    100c:	3d3d                	.insn	2, 0x3d3d
    100e:	0a3d                	.insn	2, 0x0a3d
    1010:	000a                	.insn	2, 0x000a
    1012:	0000                	.insn	2, 0x
    1014:	6148                	.insn	2, 0x6148
    1016:	6472                	.insn	2, 0x6472
    1018:	65726177          	.insn	4, 0x65726177
    101c:	7220                	.insn	2, 0x7220
    101e:	6165                	.insn	2, 0x6165
    1020:	7964                	.insn	2, 0x7964
    1022:	0a2e                	.insn	2, 0x0a2e
    1024:	0000                	.insn	2, 0x
    1026:	0000                	.insn	2, 0x
    1028:	6548                	.insn	2, 0x6548
    102a:	7061                	.insn	2, 0x7061
    102c:	203a                	.insn	2, 0x203a
    102e:	7830                	.insn	2, 0x7830
    1030:	3025                	.insn	2, 0x3025
    1032:	5838                	.insn	2, 0x5838
    1034:	302d                	.insn	2, 0x302d
    1036:	2578                	.insn	2, 0x2578
    1038:	3830                	.insn	2, 0x3830
    103a:	2058                	.insn	2, 0x2058
    103c:	2528                	.insn	2, 0x2528
    103e:	4d64                	.insn	2, 0x4d64
    1040:	2942                	.insn	2, 0x2942
    1042:	0a0a                	.insn	2, 0x0a0a
    1044:	0000                	.insn	2, 0x
    1046:	0000                	.insn	2, 0x
    1048:	4146                	.insn	2, 0x4146
    104a:	4c49                	.insn	2, 0x4c49
    104c:	203a                	.insn	2, 0x203a
    104e:	6142                	.insn	2, 0x6142
    1050:	20636973          	.insn	4, 0x20636973
    1054:	2f52                	.insn	2, 0x2f52
    1056:	72622057          	.insn	4, 0x72622057
    105a:	6e656b6f          	jal	s6,57740 <__stack_top+0x47740>
    105e:	0a21                	.insn	2, 0x0a21
    1060:	0000                	.insn	2, 0x
    1062:	0000                	.insn	2, 0x
    1064:	6142                	.insn	2, 0x6142
    1066:	20636973          	.insn	4, 0x20636973
    106a:	2f52                	.insn	2, 0x2f52
    106c:	4f203a57          	.insn	4, 0x4f203a57
    1070:	000a0a4b          	.insn	4, 0x000a0a4b
    1074:	6150                	.insn	2, 0x6150
    1076:	25207373          	.insn	4, 0x25207373
    107a:	2064                	.insn	2, 0x2064
    107c:	3028                	.insn	2, 0x3028
    107e:	2578                	.insn	2, 0x2578
    1080:	3830                	.insn	2, 0x3830
    1082:	2958                	.insn	2, 0x2958
    1084:	203a                	.insn	2, 0x203a
    1086:	0000                	.insn	2, 0x
    1088:	200a                	.insn	2, 0x200a
    108a:	5245                	.insn	2, 0x5245
    108c:	4052                	.insn	2, 0x4052
    108e:	7830                	.insn	2, 0x7830
    1090:	3025                	.insn	2, 0x3025
    1092:	5838                	.insn	2, 0x5838
    1094:	7720                	.insn	2, 0x7720
    1096:	253d                	.insn	2, 0x253d
    1098:	3830                	.insn	2, 0x3830
    109a:	2058                	.insn	2, 0x2058
    109c:	3d72                	.insn	2, 0x3d72
    109e:	3025                	.insn	2, 0x3025
    10a0:	5838                	.insn	2, 0x5838
    10a2:	0000                	.insn	2, 0x
    10a4:	002e                	.insn	2, 0x002e
    10a6:	0000                	.insn	2, 0x
    10a8:	4f20                	.insn	2, 0x4f20
    10aa:	00000a4b          	.insn	4, 0x0a4b
    10ae:	0000                	.insn	2, 0x
    10b0:	2520                	.insn	2, 0x2520
    10b2:	2064                	.insn	2, 0x2064
    10b4:	7265                	.insn	2, 0x7265
    10b6:	7372                	.insn	2, 0x7372
    10b8:	000a                	.insn	2, 0x000a
    10ba:	0000                	.insn	2, 0x
    10bc:	65657053          	.insn	4, 0x65657053
    10c0:	3a64                	.insn	2, 0x3a64
    10c2:	5220                	.insn	2, 0x5220
    10c4:	253d                	.insn	2, 0x253d
    10c6:	312e                	.insn	2, 0x312e
    10c8:	2066                	.insn	2, 0x2066
    10ca:	2e253d57          	.insn	4, 0x2e253d57
    10ce:	6631                	.insn	2, 0x6631
    10d0:	6320                	.insn	2, 0x6320
    10d2:	6379                	.insn	2, 0x6379
    10d4:	726f772f          	.insn	4, 0x726f772f
    10d8:	0a64                	.insn	2, 0x0a64
    10da:	0000                	.insn	2, 0x
    10dc:	3d0a                	.insn	2, 0x3d0a
    10de:	3d3d                	.insn	2, 0x3d3d
    10e0:	3d3d                	.insn	2, 0x3d3d
    10e2:	3d3d                	.insn	2, 0x3d3d
    10e4:	3d3d                	.insn	2, 0x3d3d
    10e6:	3d3d                	.insn	2, 0x3d3d
    10e8:	3d3d                	.insn	2, 0x3d3d
    10ea:	3d3d                	.insn	2, 0x3d3d
    10ec:	3d3d                	.insn	2, 0x3d3d
    10ee:	3d3d                	.insn	2, 0x3d3d
    10f0:	000a                	.insn	2, 0x000a
    10f2:	0000                	.insn	2, 0x
    10f4:	4c41                	.insn	2, 0x4c41
    10f6:	204c                	.insn	2, 0x204c
    10f8:	4554                	.insn	2, 0x4554
    10fa:	20535453          	.insn	4, 0x20535453
    10fe:	4150                	.insn	2, 0x4150
    1100:	44455353          	.insn	4, 0x44455353
    1104:	0a21                	.insn	2, 0x0a21
    1106:	0000                	.insn	2, 0x
    1108:	6425                	.insn	2, 0x6425
    110a:	424d                	.insn	2, 0x424d
    110c:	7620                	.insn	2, 0x7620
    110e:	7265                	.insn	2, 0x7265
    1110:	6669                	.insn	2, 0x6669
    1112:	6569                	.insn	2, 0x6569
    1114:	2064                	.insn	2, 0x2064
    1116:	000a4b4f          	.insn	4, 0x000a4b4f
    111a:	0000                	.insn	2, 0x
    111c:	5245                	.insn	2, 0x5245
    111e:	4f52                	.insn	2, 0x4f52
    1120:	5352                	.insn	2, 0x5352
    1122:	203a                	.insn	2, 0x203a
    1124:	6425                	.insn	2, 0x6425
    1126:	000a                	.insn	2, 0x000a
    1128:	440a                	.insn	2, 0x440a
    112a:	2e656e6f          	jal	t3,57410 <__stack_top+0x47410>
    112e:	000a                	.insn	2, 0x000a
    1130:	0634                	.insn	2, 0x0634
    1132:	0000                	.insn	2, 0x
    1134:	04d0                	.insn	2, 0x04d0
    1136:	0000                	.insn	2, 0x
    1138:	04d0                	.insn	2, 0x04d0
    113a:	0000                	.insn	2, 0x
    113c:	04d0                	.insn	2, 0x04d0
    113e:	0000                	.insn	2, 0x
    1140:	04d0                	.insn	2, 0x04d0
    1142:	0000                	.insn	2, 0x
    1144:	04d0                	.insn	2, 0x04d0
    1146:	0000                	.insn	2, 0x
    1148:	04d0                	.insn	2, 0x04d0
    114a:	0000                	.insn	2, 0x
    114c:	04d0                	.insn	2, 0x04d0
    114e:	0000                	.insn	2, 0x
    1150:	04d0                	.insn	2, 0x04d0
    1152:	0000                	.insn	2, 0x
    1154:	04d0                	.insn	2, 0x04d0
    1156:	0000                	.insn	2, 0x
    1158:	04d0                	.insn	2, 0x04d0
    115a:	0000                	.insn	2, 0x
    115c:	061c                	.insn	2, 0x061c
    115e:	0000                	.insn	2, 0x
    1160:	04e4                	.insn	2, 0x04e4
    1162:	0000                	.insn	2, 0x
    1164:	04d0                	.insn	2, 0x04d0
    1166:	0000                	.insn	2, 0x
    1168:	04d0                	.insn	2, 0x04d0
    116a:	0000                	.insn	2, 0x
    116c:	04d0                	.insn	2, 0x04d0
    116e:	0000                	.insn	2, 0x
    1170:	04d0                	.insn	2, 0x04d0
    1172:	0000                	.insn	2, 0x
    1174:	04e4                	.insn	2, 0x04e4
    1176:	0000                	.insn	2, 0x
    1178:	04d0                	.insn	2, 0x04d0
    117a:	0000                	.insn	2, 0x
    117c:	04d0                	.insn	2, 0x04d0
    117e:	0000                	.insn	2, 0x
    1180:	04d0                	.insn	2, 0x04d0
    1182:	0000                	.insn	2, 0x
    1184:	04d0                	.insn	2, 0x04d0
    1186:	0000                	.insn	2, 0x
    1188:	04d0                	.insn	2, 0x04d0
    118a:	0000                	.insn	2, 0x
    118c:	04d0                	.insn	2, 0x04d0
    118e:	0000                	.insn	2, 0x
    1190:	04d0                	.insn	2, 0x04d0
    1192:	0000                	.insn	2, 0x
    1194:	04d0                	.insn	2, 0x04d0
    1196:	0000                	.insn	2, 0x
    1198:	04d0                	.insn	2, 0x04d0
    119a:	0000                	.insn	2, 0x
    119c:	05ec                	.insn	2, 0x05ec
    119e:	0000                	.insn	2, 0x
    11a0:	04d0                	.insn	2, 0x04d0
    11a2:	0000                	.insn	2, 0x
    11a4:	0570                	.insn	2, 0x0570
    11a6:	0000                	.insn	2, 0x
    11a8:	04d0                	.insn	2, 0x04d0
    11aa:	0000                	.insn	2, 0x
    11ac:	04d0                	.insn	2, 0x04d0
    11ae:	0000                	.insn	2, 0x
    11b0:	04fc                	.insn	2, 0x04fc
	...

000011b4 <__clz_tab>:
    11b4:	0100 0202 0303 0303 0404 0404 0404 0404     ................
    11c4:	0505 0505 0505 0505 0505 0505 0505 0505     ................
    11d4:	0606 0606 0606 0606 0606 0606 0606 0606     ................
    11e4:	0606 0606 0606 0606 0606 0606 0606 0606     ................
    11f4:	0707 0707 0707 0707 0707 0707 0707 0707     ................
    1204:	0707 0707 0707 0707 0707 0707 0707 0707     ................
    1214:	0707 0707 0707 0707 0707 0707 0707 0707     ................
    1224:	0707 0707 0707 0707 0707 0707 0707 0707     ................
    1234:	0808 0808 0808 0808 0808 0808 0808 0808     ................
    1244:	0808 0808 0808 0808 0808 0808 0808 0808     ................
    1254:	0808 0808 0808 0808 0808 0808 0808 0808     ................
    1264:	0808 0808 0808 0808 0808 0808 0808 0808     ................
    1274:	0808 0808 0808 0808 0808 0808 0808 0808     ................
    1284:	0808 0808 0808 0808 0808 0808 0808 0808     ................
    1294:	0808 0808 0808 0808 0808 0808 0808 0808     ................
    12a4:	0808 0808 0808 0808 0808 0808 0808 0808     ................
