
firmware.elf:     file format elf32-littleriscv


Disassembly of section .text:

00000000 <_start>:
       0:	00010137          	lui	sp,0x10
       4:	00010113          	mv	sp,sp
       8:	00007537          	lui	a0,0x7
       c:	d8c50513          	addi	a0,a0,-628 # 6d8c <tok_copy_bram>
      10:	0000b5b7          	lui	a1,0xb
      14:	d9858593          	addi	a1,a1,-616 # ad98 <__bss_end>

00000018 <clear_bss>:
      18:	00b55863          	bge	a0,a1,28 <done_bss>
      1c:	00052023          	sw	zero,0(a0)
      20:	00450513          	addi	a0,a0,4
      24:	ff5ff06f          	j	18 <clear_bss>

00000028 <done_bss>:
      28:	008000ef          	jal	30 <main>

0000002c <halt>:
      2c:	0000006f          	j	2c <halt>

00000030 <main>:
      30:	ff010113          	addi	sp,sp,-16 # fff0 <__bss_end+0x5258>
      34:	00112623          	sw	ra,12(sp)
      38:	030000ef          	jal	68 <term_init>
      3c:	00006537          	lui	a0,0x6
      40:	43c50513          	addi	a0,a0,1084 # 643c <__clzsi2+0x4c>
      44:	304000ef          	jal	348 <term_printf>
      48:	00006537          	lui	a0,0x6
      4c:	45c50513          	addi	a0,a0,1116 # 645c <__clzsi2+0x6c>
      50:	2f8000ef          	jal	348 <term_printf>
      54:	00006537          	lui	a0,0x6
      58:	47c50513          	addi	a0,a0,1148 # 647c <__clzsi2+0x8c>
      5c:	2ec000ef          	jal	348 <term_printf>
      60:	119000ef          	jal	978 <llama_main>
      64:	0000006f          	j	64 <main+0x34>

00000068 <term_init>:
      68:	0000b7b7          	lui	a5,0xb
      6c:	20000737          	lui	a4,0x20000
      70:	d807a623          	sw	zero,-628(a5) # ad8c <cursor_pos>
      74:	4b070713          	addi	a4,a4,1200 # 200004b0 <__heap_end+0xc0004b0>
      78:	200007b7          	lui	a5,0x20000
      7c:	02000693          	li	a3,32
      80:	00d78023          	sb	a3,0(a5) # 20000000 <__heap_end+0xc000000>
      84:	00178793          	addi	a5,a5,1
      88:	fee79ce3          	bne	a5,a4,80 <term_init+0x18>
      8c:	00008067          	ret

00000090 <term_putchar>:
      90:	0000b5b7          	lui	a1,0xb
      94:	00a00793          	li	a5,10
      98:	d8c5a603          	lw	a2,-628(a1) # ad8c <cursor_pos>
      9c:	1af50263          	beq	a0,a5,240 <term_putchar+0x1b0>
      a0:	00d00793          	li	a5,13
      a4:	0af50263          	beq	a0,a5,148 <term_putchar+0xb8>
      a8:	00900793          	li	a5,9
      ac:	0cf51463          	bne	a0,a5,174 <term_putchar+0xe4>
      b0:	02700693          	li	a3,39
      b4:	04c6de63          	bge	a3,a2,110 <term_putchar+0x80>
      b8:	00060793          	mv	a5,a2
      bc:	00078713          	mv	a4,a5
      c0:	fd878793          	addi	a5,a5,-40
      c4:	fef6cce3          	blt	a3,a5,bc <term_putchar+0x2c>
      c8:	fdc70713          	addi	a4,a4,-36
      cc:	ffc77713          	andi	a4,a4,-4
      d0:	02800793          	li	a5,40
      d4:	00000693          	li	a3,0
      d8:	04f71463          	bne	a4,a5,120 <term_putchar+0x90>
      dc:	02700793          	li	a5,39
      e0:	fd860613          	addi	a2,a2,-40
      e4:	00068713          	mv	a4,a3
      e8:	00168693          	addi	a3,a3,1
      ec:	fec7cae3          	blt	a5,a2,e0 <term_putchar+0x50>
      f0:	00270713          	addi	a4,a4,2
      f4:	01d00793          	li	a5,29
      f8:	0ae7c663          	blt	a5,a4,1a4 <term_putchar+0x114>
      fc:	00271793          	slli	a5,a4,0x2
     100:	00e787b3          	add	a5,a5,a4
     104:	00379793          	slli	a5,a5,0x3
     108:	d8f5a623          	sw	a5,-628(a1)
     10c:	00008067          	ret
     110:	00460793          	addi	a5,a2,4
     114:	ffc7f793          	andi	a5,a5,-4
     118:	d8f5a623          	sw	a5,-628(a1)
     11c:	00008067          	ret
     120:	02700793          	li	a5,39
     124:	fd860613          	addi	a2,a2,-40
     128:	00168693          	addi	a3,a3,1
     12c:	fec7cce3          	blt	a5,a2,124 <term_putchar+0x94>
     130:	00269793          	slli	a5,a3,0x2
     134:	00d787b3          	add	a5,a5,a3
     138:	00379793          	slli	a5,a5,0x3
     13c:	00e787b3          	add	a5,a5,a4
     140:	d8f5a623          	sw	a5,-628(a1)
     144:	00008067          	ret
     148:	02700713          	li	a4,39
     14c:	00000793          	li	a5,0
     150:	fcc754e3          	bge	a4,a2,118 <term_putchar+0x88>
     154:	fd860613          	addi	a2,a2,-40
     158:	00178793          	addi	a5,a5,1
     15c:	fec74ce3          	blt	a4,a2,154 <term_putchar+0xc4>
     160:	00279713          	slli	a4,a5,0x2
     164:	00f707b3          	add	a5,a4,a5
     168:	00379793          	slli	a5,a5,0x3
     16c:	d8f5a623          	sw	a5,-628(a1)
     170:	00008067          	ret
     174:	fe050793          	addi	a5,a0,-32
     178:	0ff7f793          	zext.b	a5,a5
     17c:	05e00713          	li	a4,94
     180:	02f76063          	bltu	a4,a5,1a0 <term_putchar+0x110>
     184:	200007b7          	lui	a5,0x20000
     188:	00f607b3          	add	a5,a2,a5
     18c:	00160613          	addi	a2,a2,1
     190:	00a78023          	sb	a0,0(a5) # 20000000 <__heap_end+0xc000000>
     194:	d8c5a623          	sw	a2,-628(a1)
     198:	4af00793          	li	a5,1199
     19c:	04c7cc63          	blt	a5,a2,1f4 <term_putchar+0x164>
     1a0:	00008067          	ret
     1a4:	200007b7          	lui	a5,0x20000
     1a8:	00078693          	mv	a3,a5
     1ac:	4b068693          	addi	a3,a3,1200
     1b0:	02878793          	addi	a5,a5,40 # 20000028 <__heap_end+0xc000028>
     1b4:	0007c703          	lbu	a4,0(a5)
     1b8:	00178793          	addi	a5,a5,1
     1bc:	0ff77713          	zext.b	a4,a4
     1c0:	fce78ba3          	sb	a4,-41(a5)
     1c4:	fed798e3          	bne	a5,a3,1b4 <term_putchar+0x124>
     1c8:	200007b7          	lui	a5,0x20000
     1cc:	00078713          	mv	a4,a5
     1d0:	4b070713          	addi	a4,a4,1200
     1d4:	48878793          	addi	a5,a5,1160 # 20000488 <__heap_end+0xc000488>
     1d8:	02000693          	li	a3,32
     1dc:	00d78023          	sb	a3,0(a5)
     1e0:	00178793          	addi	a5,a5,1
     1e4:	fee79ce3          	bne	a5,a4,1dc <term_putchar+0x14c>
     1e8:	48800793          	li	a5,1160
     1ec:	d8f5a623          	sw	a5,-628(a1)
     1f0:	00008067          	ret
     1f4:	200007b7          	lui	a5,0x20000
     1f8:	00078693          	mv	a3,a5
     1fc:	4b068693          	addi	a3,a3,1200
     200:	02878793          	addi	a5,a5,40 # 20000028 <__heap_end+0xc000028>
     204:	0007c703          	lbu	a4,0(a5)
     208:	00178793          	addi	a5,a5,1
     20c:	0ff77713          	zext.b	a4,a4
     210:	fce78ba3          	sb	a4,-41(a5)
     214:	fed798e3          	bne	a5,a3,204 <term_putchar+0x174>
     218:	200007b7          	lui	a5,0x20000
     21c:	00078713          	mv	a4,a5
     220:	4b070713          	addi	a4,a4,1200
     224:	48878793          	addi	a5,a5,1160 # 20000488 <__heap_end+0xc000488>
     228:	02000693          	li	a3,32
     22c:	00d78023          	sb	a3,0(a5)
     230:	00178793          	addi	a5,a5,1
     234:	fee79ce3          	bne	a5,a4,22c <term_putchar+0x19c>
     238:	48800793          	li	a5,1160
     23c:	fb1ff06f          	j	1ec <term_putchar+0x15c>
     240:	02700793          	li	a5,39
     244:	00c7d663          	bge	a5,a2,250 <term_putchar+0x1c0>
     248:	00000693          	li	a3,0
     24c:	e91ff06f          	j	dc <term_putchar+0x4c>
     250:	02800793          	li	a5,40
     254:	ec5ff06f          	j	118 <term_putchar+0x88>

00000258 <term_putdec>:
     258:	fe010113          	addi	sp,sp,-32
     25c:	00112e23          	sw	ra,28(sp)
     260:	00812c23          	sw	s0,24(sp)
     264:	00912a23          	sw	s1,20(sp)
     268:	08054463          	bltz	a0,2f0 <term_putdec+0x98>
     26c:	00050713          	mv	a4,a0
     270:	0a050663          	beqz	a0,31c <term_putdec+0xc4>
     274:	00900793          	li	a5,9
     278:	00000593          	li	a1,0
     27c:	0aa7fc63          	bgeu	a5,a0,334 <term_putdec+0xdc>
     280:	00000413          	li	s0,0
     284:	00410493          	addi	s1,sp,4
     288:	00900693          	li	a3,9
     28c:	00070793          	mv	a5,a4
     290:	00000713          	li	a4,0
     294:	ff678793          	addi	a5,a5,-10
     298:	00170713          	addi	a4,a4,1
     29c:	fef6ece3          	bltu	a3,a5,294 <term_putdec+0x3c>
     2a0:	00140413          	addi	s0,s0,1
     2a4:	03078793          	addi	a5,a5,48
     2a8:	00848633          	add	a2,s1,s0
     2ac:	fef60fa3          	sb	a5,-1(a2)
     2b0:	fce6eee3          	bltu	a3,a4,28c <term_putdec+0x34>
     2b4:	03070713          	addi	a4,a4,48
     2b8:	002407b3          	add	a5,s0,sp
     2bc:	00e78223          	sb	a4,4(a5)
     2c0:	04059863          	bnez	a1,310 <term_putdec+0xb8>
     2c4:	00848433          	add	s0,s1,s0
     2c8:	00044503          	lbu	a0,0(s0)
     2cc:	dc5ff0ef          	jal	90 <term_putchar>
     2d0:	00040793          	mv	a5,s0
     2d4:	fff40413          	addi	s0,s0,-1
     2d8:	fef498e3          	bne	s1,a5,2c8 <term_putdec+0x70>
     2dc:	01c12083          	lw	ra,28(sp)
     2e0:	01812403          	lw	s0,24(sp)
     2e4:	01412483          	lw	s1,20(sp)
     2e8:	02010113          	addi	sp,sp,32
     2ec:	00008067          	ret
     2f0:	ff700793          	li	a5,-9
     2f4:	40a00733          	neg	a4,a0
     2f8:	00100593          	li	a1,1
     2fc:	f8f542e3          	blt	a0,a5,280 <term_putdec+0x28>
     300:	03070713          	addi	a4,a4,48
     304:	00e10223          	sb	a4,4(sp)
     308:	00000413          	li	s0,0
     30c:	00410493          	addi	s1,sp,4
     310:	02d00513          	li	a0,45
     314:	d7dff0ef          	jal	90 <term_putchar>
     318:	fadff06f          	j	2c4 <term_putdec+0x6c>
     31c:	01812403          	lw	s0,24(sp)
     320:	01c12083          	lw	ra,28(sp)
     324:	01412483          	lw	s1,20(sp)
     328:	03000513          	li	a0,48
     32c:	02010113          	addi	sp,sp,32
     330:	d61ff06f          	j	90 <term_putchar>
     334:	03050513          	addi	a0,a0,48
     338:	00a10223          	sb	a0,4(sp)
     33c:	00000413          	li	s0,0
     340:	00410493          	addi	s1,sp,4
     344:	f81ff06f          	j	2c4 <term_putdec+0x6c>

00000348 <term_printf>:
     348:	fa010113          	addi	sp,sp,-96
     34c:	03612023          	sw	s6,32(sp)
     350:	04f12a23          	sw	a5,84(sp)
     354:	02112e23          	sw	ra,60(sp)
     358:	04b12223          	sw	a1,68(sp)
     35c:	04c12423          	sw	a2,72(sp)
     360:	04d12623          	sw	a3,76(sp)
     364:	04e12823          	sw	a4,80(sp)
     368:	05012c23          	sw	a6,88(sp)
     36c:	05112e23          	sw	a7,92(sp)
     370:	00050b13          	mv	s6,a0
     374:	00054503          	lbu	a0,0(a0)
     378:	04410793          	addi	a5,sp,68
     37c:	00f12023          	sw	a5,0(sp)
     380:	08050c63          	beqz	a0,418 <term_printf+0xd0>
     384:	02812c23          	sw	s0,56(sp)
     388:	02912a23          	sw	s1,52(sp)
     38c:	03212823          	sw	s2,48(sp)
     390:	03312623          	sw	s3,44(sp)
     394:	03412423          	sw	s4,40(sp)
     398:	03512223          	sw	s5,36(sp)
     39c:	01912a23          	sw	s9,20(sp)
     3a0:	02500413          	li	s0,37
     3a4:	07800493          	li	s1,120
     3a8:	05700913          	li	s2,87
     3ac:	02000993          	li	s3,32
     3b0:	00007a37          	lui	s4,0x7
     3b4:	02851a63          	bne	a0,s0,3e8 <term_printf+0xa0>
     3b8:	001b4783          	lbu	a5,1(s6)
     3bc:	001b0a93          	addi	s5,s6,1
     3c0:	10f4e863          	bltu	s1,a5,4d0 <term_printf+0x188>
     3c4:	06f97263          	bgeu	s2,a5,428 <term_printf+0xe0>
     3c8:	fa878793          	addi	a5,a5,-88
     3cc:	0ff7f793          	zext.b	a5,a5
     3d0:	10f9e063          	bltu	s3,a5,4d0 <term_printf+0x188>
     3d4:	00279793          	slli	a5,a5,0x2
     3d8:	a14a0713          	addi	a4,s4,-1516 # 6a14 <__clzsi2+0x624>
     3dc:	00e787b3          	add	a5,a5,a4
     3e0:	0007a783          	lw	a5,0(a5)
     3e4:	00078067          	jr	a5
     3e8:	ca9ff0ef          	jal	90 <term_putchar>
     3ec:	000b0a93          	mv	s5,s6
     3f0:	001ac503          	lbu	a0,1(s5)
     3f4:	001a8b13          	addi	s6,s5,1
     3f8:	fa051ee3          	bnez	a0,3b4 <term_printf+0x6c>
     3fc:	03812403          	lw	s0,56(sp)
     400:	03412483          	lw	s1,52(sp)
     404:	03012903          	lw	s2,48(sp)
     408:	02c12983          	lw	s3,44(sp)
     40c:	02812a03          	lw	s4,40(sp)
     410:	02412a83          	lw	s5,36(sp)
     414:	01412c83          	lw	s9,20(sp)
     418:	03c12083          	lw	ra,60(sp)
     41c:	02012b03          	lw	s6,32(sp)
     420:	06010113          	addi	sp,sp,96
     424:	00008067          	ret
     428:	28878063          	beq	a5,s0,6a8 <term_printf+0x360>
     42c:	fd078613          	addi	a2,a5,-48
     430:	0ff67793          	zext.b	a5,a2
     434:	00900593          	li	a1,9
     438:	08f5ec63          	bltu	a1,a5,4d0 <term_printf+0x188>
     43c:	00000693          	li	a3,0
     440:	00269713          	slli	a4,a3,0x2
     444:	001ac783          	lbu	a5,1(s5)
     448:	00d70733          	add	a4,a4,a3
     44c:	00171713          	slli	a4,a4,0x1
     450:	00e606b3          	add	a3,a2,a4
     454:	fd078613          	addi	a2,a5,-48
     458:	0ff67713          	zext.b	a4,a2
     45c:	001a8a93          	addi	s5,s5,1
     460:	fee5f0e3          	bgeu	a1,a4,440 <term_printf+0xf8>
     464:	0df7f713          	andi	a4,a5,223
     468:	05800613          	li	a2,88
     46c:	f8c712e3          	bne	a4,a2,3f0 <term_printf+0xa8>
     470:	00012603          	lw	a2,0(sp)
     474:	01712e23          	sw	s7,28(sp)
     478:	01812c23          	sw	s8,24(sp)
     47c:	00460593          	addi	a1,a2,4
     480:	00b12023          	sw	a1,0(sp)
     484:	00062b83          	lw	s7,0(a2)
     488:	26e78263          	beq	a5,a4,6ec <term_printf+0x3a4>
     48c:	00006c37          	lui	s8,0x6
     490:	49cc0c13          	addi	s8,s8,1180 # 649c <__clzsi2+0xac>
     494:	00800793          	li	a5,8
     498:	24d7d463          	bge	a5,a3,6e0 <term_printf+0x398>
     49c:	00700693          	li	a3,7
     4a0:	00269b13          	slli	s6,a3,0x2
     4a4:	ffc00c93          	li	s9,-4
     4a8:	016bd7b3          	srl	a5,s7,s6
     4ac:	00f7f793          	andi	a5,a5,15
     4b0:	00fc07b3          	add	a5,s8,a5
     4b4:	0007c503          	lbu	a0,0(a5)
     4b8:	ffcb0b13          	addi	s6,s6,-4
     4bc:	bd5ff0ef          	jal	90 <term_putchar>
     4c0:	ff9b14e3          	bne	s6,s9,4a8 <term_printf+0x160>
     4c4:	01c12b83          	lw	s7,28(sp)
     4c8:	01812c03          	lw	s8,24(sp)
     4cc:	f25ff06f          	j	3f0 <term_printf+0xa8>
     4d0:	02500513          	li	a0,37
     4d4:	bbdff0ef          	jal	90 <term_putchar>
     4d8:	001b4503          	lbu	a0,1(s6)
     4dc:	bb5ff0ef          	jal	90 <term_putchar>
     4e0:	f11ff06f          	j	3f0 <term_printf+0xa8>
     4e4:	00012783          	lw	a5,0(sp)
     4e8:	0007a503          	lw	a0,0(a5)
     4ec:	00478793          	addi	a5,a5,4
     4f0:	00f12023          	sw	a5,0(sp)
     4f4:	d65ff0ef          	jal	258 <term_putdec>
     4f8:	ef9ff06f          	j	3f0 <term_printf+0xa8>
     4fc:	00012783          	lw	a5,0(sp)
     500:	01c00b13          	li	s6,28
     504:	ffc00713          	li	a4,-4
     508:	0007ac83          	lw	s9,0(a5)
     50c:	00478793          	addi	a5,a5,4
     510:	00f12023          	sw	a5,0(sp)
     514:	000c9863          	bnez	s9,524 <term_printf+0x1dc>
     518:	19c0006f          	j	6b4 <term_printf+0x36c>
     51c:	ffcb0b13          	addi	s6,s6,-4
     520:	eceb08e3          	beq	s6,a4,3f0 <term_printf+0xa8>
     524:	016cd7b3          	srl	a5,s9,s6
     528:	00f7f793          	andi	a5,a5,15
     52c:	fe0788e3          	beqz	a5,51c <term_printf+0x1d4>
     530:	01812c23          	sw	s8,24(sp)
     534:	00006c37          	lui	s8,0x6
     538:	01712e23          	sw	s7,28(sp)
     53c:	49cc0b93          	addi	s7,s8,1180 # 649c <__clzsi2+0xac>
     540:	ffc00c13          	li	s8,-4
     544:	00c0006f          	j	550 <term_printf+0x208>
     548:	016cd7b3          	srl	a5,s9,s6
     54c:	00f7f793          	andi	a5,a5,15
     550:	00fb87b3          	add	a5,s7,a5
     554:	0007c503          	lbu	a0,0(a5)
     558:	ffcb0b13          	addi	s6,s6,-4
     55c:	b35ff0ef          	jal	90 <term_putchar>
     560:	ff8b14e3          	bne	s6,s8,548 <term_printf+0x200>
     564:	01c12b83          	lw	s7,28(sp)
     568:	01812c03          	lw	s8,24(sp)
     56c:	e85ff06f          	j	3f0 <term_printf+0xa8>
     570:	00012783          	lw	a5,0(sp)
     574:	0007a703          	lw	a4,0(a5)
     578:	00478793          	addi	a5,a5,4
     57c:	00f12023          	sw	a5,0(sp)
     580:	12070a63          	beqz	a4,6b4 <term_printf+0x36c>
     584:	01712e23          	sw	s7,28(sp)
     588:	00900693          	li	a3,9
     58c:	00000b13          	li	s6,0
     590:	00410b93          	addi	s7,sp,4
     594:	02e6f663          	bgeu	a3,a4,5c0 <term_printf+0x278>
     598:	00070793          	mv	a5,a4
     59c:	00000713          	li	a4,0
     5a0:	ff678793          	addi	a5,a5,-10
     5a4:	00170713          	addi	a4,a4,1
     5a8:	fef6ece3          	bltu	a3,a5,5a0 <term_printf+0x258>
     5ac:	001b0b13          	addi	s6,s6,1
     5b0:	03078793          	addi	a5,a5,48
     5b4:	016b8633          	add	a2,s7,s6
     5b8:	fef60fa3          	sb	a5,-1(a2)
     5bc:	fce6eee3          	bltu	a3,a4,598 <term_printf+0x250>
     5c0:	002b07b3          	add	a5,s6,sp
     5c4:	03070713          	addi	a4,a4,48
     5c8:	00e78223          	sb	a4,4(a5)
     5cc:	016b8b33          	add	s6,s7,s6
     5d0:	000b4503          	lbu	a0,0(s6)
     5d4:	abdff0ef          	jal	90 <term_putchar>
     5d8:	000b0793          	mv	a5,s6
     5dc:	fffb0b13          	addi	s6,s6,-1
     5e0:	fefb98e3          	bne	s7,a5,5d0 <term_printf+0x288>
     5e4:	01c12b83          	lw	s7,28(sp)
     5e8:	e09ff06f          	j	3f0 <term_printf+0xa8>
     5ec:	00012783          	lw	a5,0(sp)
     5f0:	0007ab03          	lw	s6,0(a5)
     5f4:	00478793          	addi	a5,a5,4
     5f8:	00f12023          	sw	a5,0(sp)
     5fc:	0c0b0263          	beqz	s6,6c0 <term_printf+0x378>
     600:	000b4503          	lbu	a0,0(s6)
     604:	de0506e3          	beqz	a0,3f0 <term_printf+0xa8>
     608:	001b0b13          	addi	s6,s6,1
     60c:	a85ff0ef          	jal	90 <term_putchar>
     610:	000b4503          	lbu	a0,0(s6)
     614:	fe051ae3          	bnez	a0,608 <term_printf+0x2c0>
     618:	dd9ff06f          	j	3f0 <term_printf+0xa8>
     61c:	00012783          	lw	a5,0(sp)
     620:	0007c503          	lbu	a0,0(a5)
     624:	00478793          	addi	a5,a5,4
     628:	00f12023          	sw	a5,0(sp)
     62c:	a65ff0ef          	jal	90 <term_putchar>
     630:	dc1ff06f          	j	3f0 <term_printf+0xa8>
     634:	00012783          	lw	a5,0(sp)
     638:	01c00b13          	li	s6,28
     63c:	ffc00713          	li	a4,-4
     640:	0007ac83          	lw	s9,0(a5)
     644:	00478793          	addi	a5,a5,4
     648:	00f12023          	sw	a5,0(sp)
     64c:	000c9863          	bnez	s9,65c <term_printf+0x314>
     650:	0640006f          	j	6b4 <term_printf+0x36c>
     654:	ffcb0b13          	addi	s6,s6,-4
     658:	d8eb0ce3          	beq	s6,a4,3f0 <term_printf+0xa8>
     65c:	016cd7b3          	srl	a5,s9,s6
     660:	00f7f793          	andi	a5,a5,15
     664:	fe0788e3          	beqz	a5,654 <term_printf+0x30c>
     668:	01812c23          	sw	s8,24(sp)
     66c:	00006c37          	lui	s8,0x6
     670:	01712e23          	sw	s7,28(sp)
     674:	488c0b93          	addi	s7,s8,1160 # 6488 <__clzsi2+0x98>
     678:	ffc00c13          	li	s8,-4
     67c:	00c0006f          	j	688 <term_printf+0x340>
     680:	016cd7b3          	srl	a5,s9,s6
     684:	00f7f793          	andi	a5,a5,15
     688:	00fb87b3          	add	a5,s7,a5
     68c:	0007c503          	lbu	a0,0(a5)
     690:	ffcb0b13          	addi	s6,s6,-4
     694:	9fdff0ef          	jal	90 <term_putchar>
     698:	ff8b14e3          	bne	s6,s8,680 <term_printf+0x338>
     69c:	01c12b83          	lw	s7,28(sp)
     6a0:	01812c03          	lw	s8,24(sp)
     6a4:	d4dff06f          	j	3f0 <term_printf+0xa8>
     6a8:	00040513          	mv	a0,s0
     6ac:	9e5ff0ef          	jal	90 <term_putchar>
     6b0:	d41ff06f          	j	3f0 <term_printf+0xa8>
     6b4:	03000513          	li	a0,48
     6b8:	9d9ff0ef          	jal	90 <term_putchar>
     6bc:	d35ff06f          	j	3f0 <term_printf+0xa8>
     6c0:	00006b37          	lui	s6,0x6
     6c4:	480b0b13          	addi	s6,s6,1152 # 6480 <__clzsi2+0x90>
     6c8:	02800513          	li	a0,40
     6cc:	001b0b13          	addi	s6,s6,1
     6d0:	9c1ff0ef          	jal	90 <term_putchar>
     6d4:	000b4503          	lbu	a0,0(s6)
     6d8:	fe051ae3          	bnez	a0,6cc <term_printf+0x384>
     6dc:	d15ff06f          	j	3f0 <term_printf+0xa8>
     6e0:	fff68693          	addi	a3,a3,-1
     6e4:	da06dee3          	bgez	a3,4a0 <term_printf+0x158>
     6e8:	dddff06f          	j	4c4 <term_printf+0x17c>
     6ec:	00006c37          	lui	s8,0x6
     6f0:	488c0c13          	addi	s8,s8,1160 # 6488 <__clzsi2+0x98>
     6f4:	da1ff06f          	j	494 <term_printf+0x14c>

000006f8 <dataslot_wait_ready>:
     6f8:	05f5e737          	lui	a4,0x5f5e
     6fc:	10070713          	addi	a4,a4,256 # 5f5e100 <__sdram_size+0x1f5e100>
     700:	400006b7          	lui	a3,0x40000
     704:	0080006f          	j	70c <dataslot_wait_ready+0x14>
     708:	00070e63          	beqz	a4,724 <dataslot_wait_ready+0x2c>
     70c:	0006a783          	lw	a5,0(a3) # 40000000 <__heap_end+0x2c000000>
     710:	fff70713          	addi	a4,a4,-1
     714:	0027f793          	andi	a5,a5,2
     718:	fe0788e3          	beqz	a5,708 <dataslot_wait_ready+0x10>
     71c:	00000513          	li	a0,0
     720:	00008067          	ret
     724:	fff00513          	li	a0,-1
     728:	00008067          	ret

0000072c <compare_tokens>:
     72c:	00052503          	lw	a0,0(a0)
     730:	0005a583          	lw	a1,0(a1)
     734:	76d0106f          	j	26a0 <strcmp>

00000738 <rmsnorm>:
     738:	fd010113          	addi	sp,sp,-48
     73c:	01412c23          	sw	s4,24(sp)
     740:	00050a13          	mv	s4,a0
     744:	00068513          	mv	a0,a3
     748:	02812423          	sw	s0,40(sp)
     74c:	01312e23          	sw	s3,28(sp)
     750:	01612823          	sw	s6,16(sp)
     754:	01712623          	sw	s7,12(sp)
     758:	02112623          	sw	ra,44(sp)
     75c:	00068b13          	mv	s6,a3
     760:	00058993          	mv	s3,a1
     764:	00060413          	mv	s0,a2
     768:	28d050ef          	jal	61f4 <__floatsisf>
     76c:	00050b93          	mv	s7,a0
     770:	0d605663          	blez	s6,83c <rmsnorm+0x104>
     774:	002b1b13          	slli	s6,s6,0x2
     778:	02912223          	sw	s1,36(sp)
     77c:	03212023          	sw	s2,32(sp)
     780:	01512a23          	sw	s5,20(sp)
     784:	00098913          	mv	s2,s3
     788:	01698ab3          	add	s5,s3,s6
     78c:	00000493          	li	s1,0
     790:	00092583          	lw	a1,0(s2)
     794:	00490913          	addi	s2,s2,4
     798:	00058513          	mv	a0,a1
     79c:	28c050ef          	jal	5a28 <__mulsf3>
     7a0:	00050593          	mv	a1,a0
     7a4:	00048513          	mv	a0,s1
     7a8:	18d040ef          	jal	5134 <__addsf3>
     7ac:	00050493          	mv	s1,a0
     7b0:	ff5910e3          	bne	s2,s5,790 <rmsnorm+0x58>
     7b4:	000b8593          	mv	a1,s7
     7b8:	5ad040ef          	jal	5564 <__divsf3>
     7bc:	000077b7          	lui	a5,0x7
     7c0:	ce07a583          	lw	a1,-800(a5) # 6ce0 <__text_end>
     7c4:	000a0493          	mv	s1,s4
     7c8:	01640b33          	add	s6,s0,s6
     7cc:	169040ef          	jal	5134 <__addsf3>
     7d0:	7cc020ef          	jal	2f9c <sqrtf>
     7d4:	000077b7          	lui	a5,0x7
     7d8:	00050593          	mv	a1,a0
     7dc:	ce47a503          	lw	a0,-796(a5) # 6ce4 <__text_end+0x4>
     7e0:	585040ef          	jal	5564 <__divsf3>
     7e4:	00050a13          	mv	s4,a0
     7e8:	0009a583          	lw	a1,0(s3)
     7ec:	000a0513          	mv	a0,s4
     7f0:	00440413          	addi	s0,s0,4
     7f4:	234050ef          	jal	5a28 <__mulsf3>
     7f8:	ffc42583          	lw	a1,-4(s0)
     7fc:	00498993          	addi	s3,s3,4
     800:	00448493          	addi	s1,s1,4
     804:	224050ef          	jal	5a28 <__mulsf3>
     808:	fea4ae23          	sw	a0,-4(s1)
     80c:	fc8b1ee3          	bne	s6,s0,7e8 <rmsnorm+0xb0>
     810:	02c12083          	lw	ra,44(sp)
     814:	02812403          	lw	s0,40(sp)
     818:	02412483          	lw	s1,36(sp)
     81c:	02012903          	lw	s2,32(sp)
     820:	01412a83          	lw	s5,20(sp)
     824:	01c12983          	lw	s3,28(sp)
     828:	01812a03          	lw	s4,24(sp)
     82c:	01012b03          	lw	s6,16(sp)
     830:	00c12b83          	lw	s7,12(sp)
     834:	03010113          	addi	sp,sp,48
     838:	00008067          	ret
     83c:	00050593          	mv	a1,a0
     840:	00000513          	li	a0,0
     844:	521040ef          	jal	5564 <__divsf3>
     848:	000077b7          	lui	a5,0x7
     84c:	ce07a583          	lw	a1,-800(a5) # 6ce0 <__text_end>
     850:	0e5040ef          	jal	5134 <__addsf3>
     854:	02812403          	lw	s0,40(sp)
     858:	02c12083          	lw	ra,44(sp)
     85c:	01c12983          	lw	s3,28(sp)
     860:	01812a03          	lw	s4,24(sp)
     864:	01012b03          	lw	s6,16(sp)
     868:	00c12b83          	lw	s7,12(sp)
     86c:	03010113          	addi	sp,sp,48
     870:	72c0206f          	j	2f9c <sqrtf>

00000874 <softmax>:
     874:	fd010113          	addi	sp,sp,-48
     878:	01312e23          	sw	s3,28(sp)
     87c:	01412c23          	sw	s4,24(sp)
     880:	01512a23          	sw	s5,20(sp)
     884:	02112623          	sw	ra,44(sp)
     888:	02812423          	sw	s0,40(sp)
     88c:	02912223          	sw	s1,36(sp)
     890:	03212023          	sw	s2,32(sp)
     894:	01612823          	sw	s6,16(sp)
     898:	00100793          	li	a5,1
     89c:	00052983          	lw	s3,0(a0)
     8a0:	00050a13          	mv	s4,a0
     8a4:	00058a93          	mv	s5,a1
     8a8:	0cb7d063          	bge	a5,a1,968 <softmax+0xf4>
     8ac:	00259b13          	slli	s6,a1,0x2
     8b0:	01712623          	sw	s7,12(sp)
     8b4:	01650933          	add	s2,a0,s6
     8b8:	00450493          	addi	s1,a0,4
     8bc:	0004a403          	lw	s0,0(s1)
     8c0:	00098593          	mv	a1,s3
     8c4:	00448493          	addi	s1,s1,4
     8c8:	00040513          	mv	a0,s0
     8cc:	01c050ef          	jal	58e8 <__gesf2>
     8d0:	00a04463          	bgtz	a0,8d8 <softmax+0x64>
     8d4:	00098413          	mv	s0,s3
     8d8:	00040993          	mv	s3,s0
     8dc:	ff2490e3          	bne	s1,s2,8bc <softmax+0x48>
     8e0:	000a0493          	mv	s1,s4
     8e4:	000a0913          	mv	s2,s4
     8e8:	00000b93          	li	s7,0
     8ec:	00000413          	li	s0,0
     8f0:	00092503          	lw	a0,0(s2)
     8f4:	00098593          	mv	a1,s3
     8f8:	001b8b93          	addi	s7,s7,1
     8fc:	448050ef          	jal	5d44 <__subsf3>
     900:	7d8020ef          	jal	30d8 <expf>
     904:	00050593          	mv	a1,a0
     908:	00b92023          	sw	a1,0(s2)
     90c:	00040513          	mv	a0,s0
     910:	025040ef          	jal	5134 <__addsf3>
     914:	00490913          	addi	s2,s2,4
     918:	00050413          	mv	s0,a0
     91c:	fd7a9ae3          	bne	s5,s7,8f0 <softmax+0x7c>
     920:	016a0a33          	add	s4,s4,s6
     924:	0004a503          	lw	a0,0(s1)
     928:	00040593          	mv	a1,s0
     92c:	00448493          	addi	s1,s1,4
     930:	435040ef          	jal	5564 <__divsf3>
     934:	fea4ae23          	sw	a0,-4(s1)
     938:	fe9a16e3          	bne	s4,s1,924 <softmax+0xb0>
     93c:	00c12b83          	lw	s7,12(sp)
     940:	02c12083          	lw	ra,44(sp)
     944:	02812403          	lw	s0,40(sp)
     948:	02412483          	lw	s1,36(sp)
     94c:	02012903          	lw	s2,32(sp)
     950:	01c12983          	lw	s3,28(sp)
     954:	01812a03          	lw	s4,24(sp)
     958:	01412a83          	lw	s5,20(sp)
     95c:	01012b03          	lw	s6,16(sp)
     960:	03010113          	addi	sp,sp,48
     964:	00008067          	ret
     968:	fcf59ce3          	bne	a1,a5,940 <softmax+0xcc>
     96c:	01712623          	sw	s7,12(sp)
     970:	00400b13          	li	s6,4
     974:	f6dff06f          	j	8e0 <softmax+0x6c>

00000978 <llama_main>:
     978:	00006537          	lui	a0,0x6
     97c:	c6010113          	addi	sp,sp,-928
     980:	4c450513          	addi	a0,a0,1220 # 64c4 <__clzsi2+0xd4>
     984:	38112e23          	sw	ra,924(sp)
     988:	9c1ff0ef          	jal	348 <term_printf>
     98c:	00006537          	lui	a0,0x6
     990:	4e450513          	addi	a0,a0,1252 # 64e4 <__clzsi2+0xf4>
     994:	9b5ff0ef          	jal	348 <term_printf>
     998:	00006537          	lui	a0,0x6
     99c:	50450513          	addi	a0,a0,1284 # 6504 <__clzsi2+0x114>
     9a0:	9a9ff0ef          	jal	348 <term_printf>
     9a4:	400007b7          	lui	a5,0x40000
     9a8:	0007a883          	lw	a7,0(a5) # 40000000 <__heap_end+0x2c000000>
     9ac:	0018f893          	andi	a7,a7,1
     9b0:	fe088ce3          	beqz	a7,9a8 <llama_main+0x30>
     9b4:	00006537          	lui	a0,0x6
     9b8:	51c50513          	addi	a0,a0,1308 # 651c <__clzsi2+0x12c>
     9bc:	01112023          	sw	a7,0(sp)
     9c0:	989ff0ef          	jal	348 <term_printf>
     9c4:	00006537          	lui	a0,0x6
     9c8:	52c50513          	addi	a0,a0,1324 # 652c <__clzsi2+0x13c>
     9cc:	97dff0ef          	jal	348 <term_printf>
     9d0:	d29ff0ef          	jal	6f8 <dataslot_wait_ready>
     9d4:	00012883          	lw	a7,0(sp)
     9d8:	00050a63          	beqz	a0,9ec <llama_main+0x74>
     9dc:	00006537          	lui	a0,0x6
     9e0:	54850513          	addi	a0,a0,1352 # 6548 <__clzsi2+0x158>
     9e4:	965ff0ef          	jal	348 <term_printf>
     9e8:	0000006f          	j	9e8 <llama_main+0x70>
     9ec:	00006537          	lui	a0,0x6
     9f0:	57450513          	addi	a0,a0,1396 # 6574 <__clzsi2+0x184>
     9f4:	01112023          	sw	a7,0(sp)
     9f8:	38812c23          	sw	s0,920(sp)
     9fc:	38912a23          	sw	s1,916(sp)
     a00:	949ff0ef          	jal	348 <term_printf>
     a04:	00006537          	lui	a0,0x6
     a08:	58850513          	addi	a0,a0,1416 # 6588 <__clzsi2+0x198>
     a0c:	100004b7          	lui	s1,0x10000
     a10:	939ff0ef          	jal	348 <term_printf>
     a14:	0004a403          	lw	s0,0(s1) # 10000000 <__heap_start>
     a18:	00006537          	lui	a0,0x6
     a1c:	5a450513          	addi	a0,a0,1444 # 65a4 <__clzsi2+0x1b4>
     a20:	00040593          	mv	a1,s0
     a24:	925ff0ef          	jal	348 <term_printf>
     a28:	000027b7          	lui	a5,0x2
     a2c:	fff40413          	addi	s0,s0,-1
     a30:	70f78793          	addi	a5,a5,1807 # 270f <isdigit+0x3>
     a34:	00012883          	lw	a7,0(sp)
     a38:	0287f063          	bgeu	a5,s0,a58 <llama_main+0xe0>
     a3c:	00006537          	lui	a0,0x6
     a40:	5c450513          	addi	a0,a0,1476 # 65c4 <__clzsi2+0x1d4>
     a44:	905ff0ef          	jal	348 <term_printf>
     a48:	00006537          	lui	a0,0x6
     a4c:	5e450513          	addi	a0,a0,1508 # 65e4 <__clzsi2+0x1f4>
     a50:	8f9ff0ef          	jal	348 <term_printf>
     a54:	0000006f          	j	a54 <llama_main+0xdc>
     a58:	00006537          	lui	a0,0x6
     a5c:	62050513          	addi	a0,a0,1568 # 6620 <__clzsi2+0x230>
     a60:	01112023          	sw	a7,0(sp)
     a64:	39212823          	sw	s2,912(sp)
     a68:	39312623          	sw	s3,908(sp)
     a6c:	8ddff0ef          	jal	348 <term_printf>
     a70:	00006537          	lui	a0,0x6
     a74:	deadc437          	lui	s0,0xdeadc
     a78:	63850513          	addi	a0,a0,1592 # 6638 <__clzsi2+0x248>
     a7c:	eef40413          	addi	s0,s0,-273 # deadbeef <__heap_end+0xcaadbeef>
     a80:	12100937          	lui	s2,0x12100
     a84:	8c5ff0ef          	jal	348 <term_printf>
     a88:	00892023          	sw	s0,0(s2) # 12100000 <__heap_start+0x2100000>
     a8c:	00092983          	lw	s3,0(s2)
     a90:	00006537          	lui	a0,0x6
     a94:	00040593          	mv	a1,s0
     a98:	00098613          	mv	a2,s3
     a9c:	65050513          	addi	a0,a0,1616 # 6650 <__clzsi2+0x260>
     aa0:	8a9ff0ef          	jal	348 <term_printf>
     aa4:	00012883          	lw	a7,0(sp)
     aa8:	00898a63          	beq	s3,s0,abc <llama_main+0x144>
     aac:	00006537          	lui	a0,0x6
     ab0:	67450513          	addi	a0,a0,1652 # 6674 <__clzsi2+0x284>
     ab4:	895ff0ef          	jal	348 <term_printf>
     ab8:	0000006f          	j	ab8 <llama_main+0x140>
     abc:	00006537          	lui	a0,0x6
     ac0:	69450513          	addi	a0,a0,1684 # 6694 <__clzsi2+0x2a4>
     ac4:	01112023          	sw	a7,0(sp)
     ac8:	39412423          	sw	s4,904(sp)
     acc:	39512223          	sw	s5,900(sp)
     ad0:	39612023          	sw	s6,896(sp)
     ad4:	37912a23          	sw	s9,884(sp)
     ad8:	37a12823          	sw	s10,880(sp)
     adc:	37b12623          	sw	s11,876(sp)
     ae0:	869ff0ef          	jal	348 <term_printf>
     ae4:	00006537          	lui	a0,0x6
     ae8:	00090593          	mv	a1,s2
     aec:	01f00637          	lui	a2,0x1f00
     af0:	6a850513          	addi	a0,a0,1704 # 66a8 <__clzsi2+0x2b8>
     af4:	855ff0ef          	jal	348 <term_printf>
     af8:	00090513          	mv	a0,s2
     afc:	01f005b7          	lui	a1,0x1f00
     b00:	115010ef          	jal	2414 <heap_init>
     b04:	00006537          	lui	a0,0x6
     b08:	14000637          	lui	a2,0x14000
     b0c:	00090593          	mv	a1,s2
     b10:	6d450513          	addi	a0,a0,1748 # 66d4 <__clzsi2+0x2e4>
     b14:	835ff0ef          	jal	348 <term_printf>
     b18:	00006537          	lui	a0,0x6
     b1c:	00048593          	mv	a1,s1
     b20:	6f850513          	addi	a0,a0,1784 # 66f8 <__clzsi2+0x308>
     b24:	825ff0ef          	jal	348 <term_printf>
     b28:	00006537          	lui	a0,0x6
     b2c:	120005b7          	lui	a1,0x12000
     b30:	70c50513          	addi	a0,a0,1804 # 670c <__clzsi2+0x31c>
     b34:	815ff0ef          	jal	348 <term_printf>
     b38:	00006537          	lui	a0,0x6
     b3c:	72450513          	addi	a0,a0,1828 # 6724 <__clzsi2+0x334>
     b40:	809ff0ef          	jal	348 <term_printf>
     b44:	00006537          	lui	a0,0x6
     b48:	74050513          	addi	a0,a0,1856 # 6740 <__clzsi2+0x350>
     b4c:	ffcff0ef          	jal	348 <term_printf>
     b50:	00006537          	lui	a0,0x6
     b54:	00048593          	mv	a1,s1
     b58:	76050513          	addi	a0,a0,1888 # 6760 <__clzsi2+0x370>
     b5c:	fecff0ef          	jal	348 <term_printf>
     b60:	00006537          	lui	a0,0x6
     b64:	77850513          	addi	a0,a0,1912 # 6778 <__clzsi2+0x388>
     b68:	fe0ff0ef          	jal	348 <term_printf>
     b6c:	0004a583          	lw	a1,0(s1)
     b70:	00006537          	lui	a0,0x6
     b74:	78c50513          	addi	a0,a0,1932 # 678c <__clzsi2+0x39c>
     b78:	fd0ff0ef          	jal	348 <term_printf>
     b7c:	0144a403          	lw	s0,20(s1)
     b80:	0004a803          	lw	a6,0(s1)
     b84:	00c4a703          	lw	a4,12(s1)
     b88:	0044aa83          	lw	s5,4(s1)
     b8c:	0084ab03          	lw	s6,8(s1)
     b90:	00040513          	mv	a0,s0
     b94:	00080993          	mv	s3,a6
     b98:	00070a13          	mv	s4,a4
     b9c:	02e12223          	sw	a4,36(sp)
     ba0:	0104ac83          	lw	s9,16(s1)
     ba4:	03012623          	sw	a6,44(sp)
     ba8:	0184a903          	lw	s2,24(s1)
     bac:	07512623          	sw	s5,108(sp)
     bb0:	09612623          	sw	s6,140(sp)
     bb4:	365010ef          	jal	2718 <abs>
     bb8:	00050493          	mv	s1,a0
     bbc:	00a12223          	sw	a0,4(sp)
     bc0:	00006537          	lui	a0,0x6
     bc4:	00802633          	sgtz	a2,s0
     bc8:	00048593          	mv	a1,s1
     bcc:	79850513          	addi	a0,a0,1944 # 6798 <__clzsi2+0x3a8>
     bd0:	f78ff0ef          	jal	348 <term_printf>
     bd4:	100005b7          	lui	a1,0x10000
     bd8:	00006537          	lui	a0,0x6
     bdc:	01c58593          	addi	a1,a1,28 # 1000001c <__heap_start+0x1c>
     be0:	7b450513          	addi	a0,a0,1972 # 67b4 <__clzsi2+0x3c4>
     be4:	f64ff0ef          	jal	348 <term_printf>
     be8:	0349c333          	div	t1,s3,s4
     bec:	002a9893          	slli	a7,s5,0x2
     bf0:	100005b7          	lui	a1,0x10000
     bf4:	01c58593          	addi	a1,a1,28 # 1000001c <__heap_start+0x1c>
     bf8:	0ab12a23          	sw	a1,180(sp)
     bfc:	07112a23          	sw	a7,116(sp)
     c00:	033b07b3          	mul	a5,s6,s3
     c04:	00612623          	sw	t1,12(sp)
     c08:	034306b3          	mul	a3,t1,s4
     c0c:	00279713          	slli	a4,a5,0x2
     c10:	03930633          	mul	a2,t1,s9
     c14:	03348533          	mul	a0,s1,s3
     c18:	02e686b3          	mul	a3,a3,a4
     c1c:	00251513          	slli	a0,a0,0x2
     c20:	00b505b3          	add	a1,a0,a1
     c24:	0cb12223          	sw	a1,196(sp)
     c28:	00e585b3          	add	a1,a1,a4
     c2c:	0cb12423          	sw	a1,200(sp)
     c30:	02e60633          	mul	a2,a2,a4
     c34:	00d585b3          	add	a1,a1,a3
     c38:	0cb12623          	sw	a1,204(sp)
     c3c:	031787b3          	mul	a5,a5,a7
     c40:	00c585b3          	add	a1,a1,a2
     c44:	00c58633          	add	a2,a1,a2
     c48:	00d606b3          	add	a3,a2,a3
     c4c:	00e68733          	add	a4,a3,a4
     c50:	0ce12e23          	sw	a4,220(sp)
     c54:	0cd12c23          	sw	a3,216(sp)
     c58:	0cb12823          	sw	a1,208(sp)
     c5c:	0cc12a23          	sw	a2,212(sp)
     c60:	00012883          	lw	a7,0(sp)
     c64:	00f70733          	add	a4,a4,a5
     c68:	0ee12023          	sw	a4,224(sp)
     c6c:	00f70733          	add	a4,a4,a5
     c70:	00f706b3          	add	a3,a4,a5
     c74:	0ee12223          	sw	a4,228(sp)
     c78:	0ed12423          	sw	a3,232(sp)
     c7c:	3c805a63          	blez	s0,1050 <llama_main+0x6d8>
     c80:	00006537          	lui	a0,0x6
     c84:	7d450513          	addi	a0,a0,2004 # 67d4 <__clzsi2+0x3e4>
     c88:	01112023          	sw	a7,0(sp)
     c8c:	ebcff0ef          	jal	348 <term_printf>
     c90:	02c12483          	lw	s1,44(sp)
     c94:	02412703          	lw	a4,36(sp)
     c98:	00006537          	lui	a0,0x6
     c9c:	039487b3          	mul	a5,s1,s9
     ca0:	7f050513          	addi	a0,a0,2032 # 67f0 <__clzsi2+0x400>
     ca4:	00007ab7          	lui	s5,0x7
     ca8:	02e7cdb3          	div	s11,a5,a4
     cac:	08c12783          	lw	a5,140(sp)
     cb0:	02f90433          	mul	s0,s2,a5
     cb4:	03b40433          	mul	s0,s0,s11
     cb8:	00241413          	slli	s0,s0,0x2
     cbc:	00040593          	mv	a1,s0
     cc0:	e88ff0ef          	jal	348 <term_printf>
     cc4:	d88aa683          	lw	a3,-632(s5) # 6d88 <sdram_arena_ptr>
     cc8:	00249793          	slli	a5,s1,0x2
     ccc:	00778713          	addi	a4,a5,7
     cd0:	ff877713          	andi	a4,a4,-8
     cd4:	0af12823          	sw	a5,176(sp)
     cd8:	00e687b3          	add	a5,a3,a4
     cdc:	04d12623          	sw	a3,76(sp)
     ce0:	02f12c23          	sw	a5,56(sp)
     ce4:	140006b7          	lui	a3,0x14000
     ce8:	00012883          	lw	a7,0(sp)
     cec:	38f6ec63          	bltu	a3,a5,1084 <llama_main+0x70c>
     cf0:	00e787b3          	add	a5,a5,a4
     cf4:	00f12023          	sw	a5,0(sp)
     cf8:	42f6e263          	bltu	a3,a5,111c <llama_main+0x7a4>
     cfc:	00012783          	lw	a5,0(sp)
     d00:	00e787b3          	add	a5,a5,a4
     d04:	3ef6e863          	bltu	a3,a5,10f4 <llama_main+0x77c>
     d08:	00012683          	lw	a3,0(sp)
     d0c:	d8faa423          	sw	a5,-632(s5)
     d10:	00f12023          	sw	a5,0(sp)
     d14:	06d12223          	sw	a3,100(sp)
     d18:	07412783          	lw	a5,116(sp)
     d1c:	00012683          	lw	a3,0(sp)
     d20:	00778793          	addi	a5,a5,7
     d24:	ff87f793          	andi	a5,a5,-8
     d28:	00f686b3          	add	a3,a3,a5
     d2c:	00068613          	mv	a2,a3
     d30:	04d12a23          	sw	a3,84(sp)
     d34:	140006b7          	lui	a3,0x14000
     d38:	36c6ee63          	bltu	a3,a2,10b4 <llama_main+0x73c>
     d3c:	05412683          	lw	a3,84(sp)
     d40:	00f687b3          	add	a5,a3,a5
     d44:	140006b7          	lui	a3,0x14000
     d48:	38f6e863          	bltu	a3,a5,10d8 <llama_main+0x760>
     d4c:	00012683          	lw	a3,0(sp)
     d50:	d8faa423          	sw	a5,-632(s5)
     d54:	00f12023          	sw	a5,0(sp)
     d58:	04d12e23          	sw	a3,92(sp)
     d5c:	00012683          	lw	a3,0(sp)
     d60:	140007b7          	lui	a5,0x14000
     d64:	00e68733          	add	a4,a3,a4
     d68:	34e7e263          	bltu	a5,a4,10ac <llama_main+0x734>
     d6c:	02d12023          	sw	a3,32(sp)
     d70:	d8eaa423          	sw	a4,-632(s5)
     d74:	00e12023          	sw	a4,0(sp)
     d78:	00012703          	lw	a4,0(sp)
     d7c:	00740793          	addi	a5,s0,7
     d80:	ff87f793          	andi	a5,a5,-8
     d84:	00f70d33          	add	s10,a4,a5
     d88:	14000737          	lui	a4,0x14000
     d8c:	31a76a63          	bltu	a4,s10,10a0 <llama_main+0x728>
     d90:	00fd07b3          	add	a5,s10,a5
     d94:	32f76663          	bltu	a4,a5,10c0 <llama_main+0x748>
     d98:	00012703          	lw	a4,0(sp)
     d9c:	d8faa423          	sw	a5,-632(s5)
     da0:	00f12023          	sw	a5,0(sp)
     da4:	06e12423          	sw	a4,104(sp)
     da8:	02412783          	lw	a5,36(sp)
     dac:	00012683          	lw	a3,0(sp)
     db0:	14000737          	lui	a4,0x14000
     db4:	02f907b3          	mul	a5,s2,a5
     db8:	00279793          	slli	a5,a5,0x2
     dbc:	00778793          	addi	a5,a5,7 # 14000007 <__heap_end+0x7>
     dc0:	ff87f793          	andi	a5,a5,-8
     dc4:	00f687b3          	add	a5,a3,a5
     dc8:	2af76663          	bltu	a4,a5,1074 <llama_main+0x6fc>
     dcc:	08d12223          	sw	a3,132(sp)
     dd0:	d8faa423          	sw	a5,-632(s5)
     dd4:	00f12023          	sw	a5,0(sp)
     dd8:	00412783          	lw	a5,4(sp)
     ddc:	14000737          	lui	a4,0x14000
     de0:	00279793          	slli	a5,a5,0x2
     de4:	00778793          	addi	a5,a5,7
     de8:	ff87f413          	andi	s0,a5,-8
     dec:	00012783          	lw	a5,0(sp)
     df0:	008787b3          	add	a5,a5,s0
     df4:	28f76463          	bltu	a4,a5,107c <llama_main+0x704>
     df8:	d8faa423          	sw	a5,-632(s5)
     dfc:	04c12783          	lw	a5,76(sp)
     e00:	24078063          	beqz	a5,1040 <llama_main+0x6c8>
     e04:	03812783          	lw	a5,56(sp)
     e08:	22078c63          	beqz	a5,1040 <llama_main+0x6c8>
     e0c:	06412783          	lw	a5,100(sp)
     e10:	22078863          	beqz	a5,1040 <llama_main+0x6c8>
     e14:	05c12783          	lw	a5,92(sp)
     e18:	22078463          	beqz	a5,1040 <llama_main+0x6c8>
     e1c:	05412783          	lw	a5,84(sp)
     e20:	22078063          	beqz	a5,1040 <llama_main+0x6c8>
     e24:	02012783          	lw	a5,32(sp)
     e28:	20078c63          	beqz	a5,1040 <llama_main+0x6c8>
     e2c:	06812783          	lw	a5,104(sp)
     e30:	20078863          	beqz	a5,1040 <llama_main+0x6c8>
     e34:	200d0663          	beqz	s10,1040 <llama_main+0x6c8>
     e38:	08412783          	lw	a5,132(sp)
     e3c:	20078263          	beqz	a5,1040 <llama_main+0x6c8>
     e40:	00012783          	lw	a5,0(sp)
     e44:	1e078e63          	beqz	a5,1040 <llama_main+0x6c8>
     e48:	00007537          	lui	a0,0x7
     e4c:	82850513          	addi	a0,a0,-2008 # 6828 <__clzsi2+0x438>
     e50:	01112423          	sw	a7,8(sp)
     e54:	cf4ff0ef          	jal	348 <term_printf>
     e58:	00412483          	lw	s1,4(sp)
     e5c:	02412703          	lw	a4,36(sp)
     e60:	08c12683          	lw	a3,140(sp)
     e64:	06c12603          	lw	a2,108(sp)
     e68:	02c12583          	lw	a1,44(sp)
     e6c:	00007537          	lui	a0,0x7
     e70:	00090813          	mv	a6,s2
     e74:	00048793          	mv	a5,s1
     e78:	84050513          	addi	a0,a0,-1984 # 6840 <__clzsi2+0x450>
     e7c:	cccff0ef          	jal	348 <term_printf>
     e80:	00007537          	lui	a0,0x7
     e84:	88450513          	addi	a0,a0,-1916 # 6884 <__clzsi2+0x494>
     e88:	cc0ff0ef          	jal	348 <term_printf>
     e8c:	120007b7          	lui	a5,0x12000
     e90:	0007a583          	lw	a1,0(a5) # 12000000 <__heap_start+0x2000000>
     e94:	00007537          	lui	a0,0x7
     e98:	89c50513          	addi	a0,a0,-1892 # 689c <__clzsi2+0x4ac>
     e9c:	cacff0ef          	jal	348 <term_printf>
     ea0:	d88aa683          	lw	a3,-632(s5)
     ea4:	14912c23          	sw	s1,344(sp)
     ea8:	14000637          	lui	a2,0x14000
     eac:	00868733          	add	a4,a3,s0
     eb0:	00812883          	lw	a7,8(sp)
     eb4:	28e66863          	bltu	a2,a4,1144 <llama_main+0x7cc>
     eb8:	d8eaa423          	sw	a4,-632(s5)
     ebc:	14d12623          	sw	a3,332(sp)
     ec0:	008707b3          	add	a5,a4,s0
     ec4:	28f66263          	bltu	a2,a5,1148 <llama_main+0x7d0>
     ec8:	d8faa423          	sw	a5,-632(s5)
     ecc:	14e12823          	sw	a4,336(sp)
     ed0:	14012a23          	sw	zero,340(sp)
     ed4:	14c10713          	addi	a4,sp,332
     ed8:	00000793          	li	a5,0
     edc:	10000613          	li	a2,256
     ee0:	26068863          	beqz	a3,1150 <llama_main+0x7d8>
     ee4:	37712e23          	sw	s7,892(sp)
     ee8:	37812c23          	sw	s8,888(sp)
     eec:	00f70a23          	sb	a5,20(a4) # 14000014 <__heap_end+0x14>
     ef0:	00070aa3          	sb	zero,21(a4)
     ef4:	00178793          	addi	a5,a5,1
     ef8:	00270713          	addi	a4,a4,2
     efc:	fec798e3          	bne	a5,a2,eec <llama_main+0x574>
     f00:	00007637          	lui	a2,0x7
     f04:	d8c60713          	addi	a4,a2,-628 # 6d8c <tok_copy_bram>
     f08:	120007b7          	lui	a5,0x12000
     f0c:	120045b7          	lui	a1,0x12004
     f10:	0007a683          	lw	a3,0(a5) # 12000000 <__heap_start+0x2000000>
     f14:	00478793          	addi	a5,a5,4
     f18:	00470713          	addi	a4,a4,4
     f1c:	fed72e23          	sw	a3,-4(a4)
     f20:	feb798e3          	bne	a5,a1,f10 <llama_main+0x598>
     f24:	d8c62783          	lw	a5,-628(a2)
     f28:	00000b13          	li	s6,0
     f2c:	00007bb7          	lui	s7,0x7
     f30:	14f12e23          	sw	a5,348(sp)
     f34:	14410793          	addi	a5,sp,324
     f38:	01212423          	sw	s2,8(sp)
     f3c:	d90b8b93          	addi	s7,s7,-624 # 6d90 <tok_copy_bram+0x4>
     f40:	000b0913          	mv	s2,s6
     f44:	00007c37          	lui	s8,0x7
     f48:	06f12023          	sw	a5,96(sp)
     f4c:	01900493          	li	s1,25
     f50:	06400993          	li	s3,100
     f54:	14000a37          	lui	s4,0x14000
     f58:	02000413          	li	s0,32
     f5c:	00088b13          	mv	s6,a7
     f60:	00412783          	lw	a5,4(sp)
     f64:	00f94463          	blt	s2,a5,f6c <llama_main+0x5f4>
     f68:	34c0106f          	j	22b4 <llama_main+0x193c>
     f6c:	029967b3          	rem	a5,s2,s1
     f70:	00079463          	bnez	a5,f78 <llama_main+0x600>
     f74:	2ac0106f          	j	2220 <llama_main+0x18a8>
     f78:	00400613          	li	a2,4
     f7c:	000b8593          	mv	a1,s7
     f80:	14010513          	addi	a0,sp,320
     f84:	5f8010ef          	jal	257c <memcpy>
     f88:	06012503          	lw	a0,96(sp)
     f8c:	004b8593          	addi	a1,s7,4
     f90:	00400613          	li	a2,4
     f94:	5e8010ef          	jal	257c <memcpy>
     f98:	14412583          	lw	a1,324(sp)
     f9c:	00b9f463          	bgeu	s3,a1,fa4 <llama_main+0x62c>
     fa0:	2900106f          	j	2230 <llama_main+0x18b8>
     fa4:	15012803          	lw	a6,336(sp)
     fa8:	00458613          	addi	a2,a1,4 # 12004004 <__heap_start+0x2004004>
     fac:	d88aa883          	lw	a7,-632(s5)
     fb0:	14012e03          	lw	t3,320(sp)
     fb4:	ffc67313          	andi	t1,a2,-4
     fb8:	14c12503          	lw	a0,332(sp)
     fbc:	00291793          	slli	a5,s2,0x2
     fc0:	00730713          	addi	a4,t1,7
     fc4:	00f80833          	add	a6,a6,a5
     fc8:	ff877713          	andi	a4,a4,-8
     fcc:	00e88733          	add	a4,a7,a4
     fd0:	01c82023          	sw	t3,0(a6)
     fd4:	00f507b3          	add	a5,a0,a5
     fd8:	00ea7463          	bgeu	s4,a4,fe0 <llama_main+0x668>
     fdc:	2c40106f          	j	22a0 <llama_main+0x1928>
     fe0:	d8eaa423          	sw	a4,-632(s5)
     fe4:	0117a023          	sw	a7,0(a5)
     fe8:	00089463          	bnez	a7,ff0 <llama_main+0x678>
     fec:	2780106f          	j	2264 <llama_main+0x18ec>
     ff0:	ffc67813          	andi	a6,a2,-4
     ff4:	00000513          	li	a0,0
     ff8:	00050793          	mv	a5,a0
     ffc:	00000713          	li	a4,0
    1000:	00000613          	li	a2,0
    1004:	00fb86b3          	add	a3,s7,a5
    1008:	00b7d863          	bge	a5,a1,1018 <llama_main+0x6a0>
    100c:	0086c683          	lbu	a3,8(a3) # 14000008 <__heap_end+0x8>
    1010:	00e696b3          	sll	a3,a3,a4
    1014:	00d66633          	or	a2,a2,a3
    1018:	00870713          	addi	a4,a4,8
    101c:	00178793          	addi	a5,a5,1
    1020:	fe8712e3          	bne	a4,s0,1004 <llama_main+0x68c>
    1024:	00a887b3          	add	a5,a7,a0
    1028:	00c7a023          	sw	a2,0(a5)
    102c:	00450513          	addi	a0,a0,4
    1030:	01051463          	bne	a0,a6,1038 <llama_main+0x6c0>
    1034:	1d80106f          	j	220c <llama_main+0x1894>
    1038:	14412583          	lw	a1,324(sp)
    103c:	fbdff06f          	j	ff8 <llama_main+0x680>
    1040:	00007537          	lui	a0,0x7
    1044:	80c50513          	addi	a0,a0,-2036 # 680c <__clzsi2+0x41c>
    1048:	b00ff0ef          	jal	348 <term_printf>
    104c:	0000006f          	j	104c <llama_main+0x6d4>
    1050:	032307b3          	mul	a5,t1,s2
    1054:	00200713          	li	a4,2
    1058:	02e7c7b3          	div	a5,a5,a4
    105c:	00179793          	slli	a5,a5,0x1
    1060:	013787b3          	add	a5,a5,s3
    1064:	00279793          	slli	a5,a5,0x2
    1068:	00f687b3          	add	a5,a3,a5
    106c:	0af12a23          	sw	a5,180(sp)
    1070:	c11ff06f          	j	c80 <llama_main+0x308>
    1074:	08012223          	sw	zero,132(sp)
    1078:	d61ff06f          	j	dd8 <llama_main+0x460>
    107c:	00012023          	sw	zero,0(sp)
    1080:	d7dff06f          	j	dfc <llama_main+0x484>
    1084:	00000793          	li	a5,0
    1088:	04c12683          	lw	a3,76(sp)
    108c:	02012c23          	sw	zero,56(sp)
    1090:	04f12623          	sw	a5,76(sp)
    1094:	00d12023          	sw	a3,0(sp)
    1098:	06012223          	sw	zero,100(sp)
    109c:	c7dff06f          	j	d18 <llama_main+0x3a0>
    10a0:	06012423          	sw	zero,104(sp)
    10a4:	00000d13          	li	s10,0
    10a8:	d01ff06f          	j	da8 <llama_main+0x430>
    10ac:	02012023          	sw	zero,32(sp)
    10b0:	cc9ff06f          	j	d78 <llama_main+0x400>
    10b4:	04012e23          	sw	zero,92(sp)
    10b8:	04012a23          	sw	zero,84(sp)
    10bc:	ca1ff06f          	j	d5c <llama_main+0x3e4>
    10c0:	00012783          	lw	a5,0(sp)
    10c4:	d9aaa423          	sw	s10,-632(s5)
    10c8:	01a12023          	sw	s10,0(sp)
    10cc:	06f12423          	sw	a5,104(sp)
    10d0:	00000d13          	li	s10,0
    10d4:	cd5ff06f          	j	da8 <llama_main+0x430>
    10d8:	00012783          	lw	a5,0(sp)
    10dc:	04f12e23          	sw	a5,92(sp)
    10e0:	05412783          	lw	a5,84(sp)
    10e4:	04012a23          	sw	zero,84(sp)
    10e8:	d8faa423          	sw	a5,-632(s5)
    10ec:	00f12023          	sw	a5,0(sp)
    10f0:	c6dff06f          	j	d5c <llama_main+0x3e4>
    10f4:	07412783          	lw	a5,116(sp)
    10f8:	00012603          	lw	a2,0(sp)
    10fc:	00778793          	addi	a5,a5,7
    1100:	ff87f793          	andi	a5,a5,-8
    1104:	d8caa423          	sw	a2,-632(s5)
    1108:	00f60633          	add	a2,a2,a5
    110c:	04c12a23          	sw	a2,84(sp)
    1110:	02c6e063          	bltu	a3,a2,1130 <llama_main+0x7b8>
    1114:	06012223          	sw	zero,100(sp)
    1118:	c25ff06f          	j	d3c <llama_main+0x3c4>
    111c:	03812683          	lw	a3,56(sp)
    1120:	04c12783          	lw	a5,76(sp)
    1124:	d8daa423          	sw	a3,-632(s5)
    1128:	04d12623          	sw	a3,76(sp)
    112c:	f5dff06f          	j	1088 <llama_main+0x710>
    1130:	04012e23          	sw	zero,92(sp)
    1134:	04012a23          	sw	zero,84(sp)
    1138:	06012223          	sw	zero,100(sp)
    113c:	02012023          	sw	zero,32(sp)
    1140:	c39ff06f          	j	d78 <llama_main+0x400>
    1144:	14012623          	sw	zero,332(sp)
    1148:	14012823          	sw	zero,336(sp)
    114c:	14012a23          	sw	zero,340(sp)
    1150:	00007537          	lui	a0,0x7
    1154:	8c850513          	addi	a0,a0,-1848 # 68c8 <__clzsi2+0x4d8>
    1158:	01112423          	sw	a7,8(sp)
    115c:	9ecff0ef          	jal	348 <term_printf>
    1160:	14410793          	addi	a5,sp,324
    1164:	00812883          	lw	a7,8(sp)
    1168:	06f12023          	sw	a5,96(sp)
    116c:	000067b7          	lui	a5,0x6
    1170:	06f12823          	sw	a5,112(sp)
    1174:	00007537          	lui	a0,0x7
    1178:	95c50513          	addi	a0,a0,-1700 # 695c <__clzsi2+0x56c>
    117c:	01112423          	sw	a7,8(sp)
    1180:	9c8ff0ef          	jal	348 <term_printf>
    1184:	00412703          	lw	a4,4(sp)
    1188:	400007b7          	lui	a5,0x40000
    118c:	00478793          	addi	a5,a5,4 # 40000004 <__heap_end+0x2c000004>
    1190:	0007a783          	lw	a5,0(a5)
    1194:	00371513          	slli	a0,a4,0x3
    1198:	2b0010ef          	jal	2448 <malloc>
    119c:	00050793          	mv	a5,a0
    11a0:	00007537          	lui	a0,0x7
    11a4:	97450513          	addi	a0,a0,-1676 # 6974 <__clzsi2+0x584>
    11a8:	0af12e23          	sw	a5,188(sp)
    11ac:	99cff0ef          	jal	348 <term_printf>
    11b0:	00006a37          	lui	s4,0x6
    11b4:	00007537          	lui	a0,0x7
    11b8:	4b0a0593          	addi	a1,s4,1200 # 64b0 <__clzsi2+0xc0>
    11bc:	98c50513          	addi	a0,a0,-1652 # 698c <__clzsi2+0x59c>
    11c0:	988ff0ef          	jal	348 <term_printf>
    11c4:	4b0a0513          	addi	a0,s4,1200
    11c8:	4b0010ef          	jal	2678 <strlen>
    11cc:	00350513          	addi	a0,a0,3
    11d0:	00251513          	slli	a0,a0,0x2
    11d4:	274010ef          	jal	2448 <malloc>
    11d8:	15412783          	lw	a5,340(sp)
    11dc:	04a12c23          	sw	a0,88(sp)
    11e0:	00812883          	lw	a7,8(sp)
    11e4:	00079463          	bnez	a5,11ec <llama_main+0x874>
    11e8:	1a80106f          	j	2390 <llama_main+0x1a18>
    11ec:	15c12503          	lw	a0,348(sp)
    11f0:	01112423          	sw	a7,8(sp)
    11f4:	37712e23          	sw	s7,892(sp)
    11f8:	00151513          	slli	a0,a0,0x1
    11fc:	00350513          	addi	a0,a0,3
    1200:	37812c23          	sw	s8,888(sp)
    1204:	244010ef          	jal	2448 <malloc>
    1208:	05812783          	lw	a5,88(sp)
    120c:	00100713          	li	a4,1
    1210:	15412583          	lw	a1,340(sp)
    1214:	00e7a023          	sw	a4,0(a5)
    1218:	15812603          	lw	a2,344(sp)
    121c:	00050b13          	mv	s6,a0
    1220:	06012503          	lw	a0,96(sp)
    1224:	00007837          	lui	a6,0x7
    1228:	99c80813          	addi	a6,a6,-1636 # 699c <__clzsi2+0x5ac>
    122c:	72c00713          	li	a4,1836
    1230:	00800693          	li	a3,8
    1234:	14012423          	sw	zero,328(sp)
    1238:	15012223          	sw	a6,324(sp)
    123c:	05d010ef          	jal	2a98 <bsearch>
    1240:	00812883          	lw	a7,8(sp)
    1244:	00051463          	bnez	a0,124c <llama_main+0x8d4>
    1248:	1400106f          	j	2388 <llama_main+0x1a10>
    124c:	00452703          	lw	a4,4(a0)
    1250:	05812783          	lw	a5,88(sp)
    1254:	000c8813          	mv	a6,s9
    1258:	4b0a0a13          	addi	s4,s4,1200
    125c:	00e7a223          	sw	a4,4(a5)
    1260:	00090c93          	mv	s9,s2
    1264:	00200a93          	li	s5,2
    1268:	00048913          	mv	s2,s1
    126c:	00000713          	li	a4,0
    1270:	08000c13          	li	s8,128
    1274:	fff00993          	li	s3,-1
    1278:	00400b93          	li	s7,4
    127c:	00088493          	mv	s1,a7
    1280:	0740006f          	j	12f4 <llama_main+0x97c>
    1284:	00db0023          	sb	a3,0(s6)
    1288:	000b00a3          	sb	zero,1(s6)
    128c:	00048413          	mv	s0,s1
    1290:	05878e63          	beq	a5,s8,12ec <llama_main+0x974>
    1294:	15812603          	lw	a2,344(sp)
    1298:	15412583          	lw	a1,340(sp)
    129c:	06012503          	lw	a0,96(sp)
    12a0:	00800693          	li	a3,8
    12a4:	72c00713          	li	a4,1836
    12a8:	01012423          	sw	a6,8(sp)
    12ac:	14012423          	sw	zero,328(sp)
    12b0:	15612223          	sw	s6,324(sp)
    12b4:	7e4010ef          	jal	2a98 <bsearch>
    12b8:	05812683          	lw	a3,88(sp)
    12bc:	002a9793          	slli	a5,s5,0x2
    12c0:	00812803          	lw	a6,8(sp)
    12c4:	00f687b3          	add	a5,a3,a5
    12c8:	001a8693          	addi	a3,s5,1
    12cc:	00051463          	bnez	a0,12d4 <llama_main+0x95c>
    12d0:	01c0106f          	j	22ec <llama_main+0x1974>
    12d4:	00452703          	lw	a4,4(a0)
    12d8:	01371463          	bne	a4,s3,12e0 <llama_main+0x968>
    12dc:	0100106f          	j	22ec <llama_main+0x1974>
    12e0:	00e7a023          	sw	a4,0(a5)
    12e4:	00068a93          	mv	s5,a3
    12e8:	00000413          	li	s0,0
    12ec:	001a0a13          	addi	s4,s4,1
    12f0:	00040713          	mv	a4,s0
    12f4:	000a4683          	lbu	a3,0(s4)
    12f8:	02068a63          	beqz	a3,132c <llama_main+0x9b4>
    12fc:	001a4783          	lbu	a5,1(s4)
    1300:	0c06f613          	andi	a2,a3,192
    1304:	0c07f793          	andi	a5,a5,192
    1308:	f7861ee3          	bne	a2,s8,1284 <llama_main+0x90c>
    130c:	00170413          	addi	s0,a4,1
    1310:	00eb0733          	add	a4,s6,a4
    1314:	00d70023          	sb	a3,0(a4)
    1318:	008b0733          	add	a4,s6,s0
    131c:	00070023          	sb	zero,0(a4)
    1320:	f7879ae3          	bne	a5,s8,1294 <llama_main+0x91c>
    1324:	f77408e3          	beq	s0,s7,1294 <llama_main+0x91c>
    1328:	fc5ff06f          	j	12ec <llama_main+0x974>
    132c:	00007737          	lui	a4,0x7
    1330:	ce872783          	lw	a5,-792(a4) # 6ce8 <__text_end+0x8>
    1334:	00048893          	mv	a7,s1
    1338:	00090493          	mv	s1,s2
    133c:	00f12823          	sw	a5,16(sp)
    1340:	000c8913          	mv	s2,s9
    1344:	fff00a13          	li	s4,-1
    1348:	00080613          	mv	a2,a6
    134c:	000a8713          	mv	a4,s5
    1350:	00048c93          	mv	s9,s1
    1354:	05812c03          	lw	s8,88(sp)
    1358:	01012483          	lw	s1,16(sp)
    135c:	fff00413          	li	s0,-1
    1360:	00000a93          	li	s5,0
    1364:	01212a23          	sw	s2,20(sp)
    1368:	00040993          	mv	s3,s0
    136c:	00048913          	mv	s2,s1
    1370:	00870bb3          	add	s7,a4,s0
    1374:	000a8493          	mv	s1,s5
    1378:	00c12c23          	sw	a2,24(sp)
    137c:	000c0a93          	mv	s5,s8
    1380:	00e12e23          	sw	a4,28(sp)
    1384:	00088c13          	mv	s8,a7
    1388:	01c0006f          	j	13a4 <llama_main+0xa2c>
    138c:	00098793          	mv	a5,s3
    1390:	00090713          	mv	a4,s2
    1394:	00148493          	addi	s1,s1,1
    1398:	004a8a93          	addi	s5,s5,4
    139c:	00078993          	mv	s3,a5
    13a0:	00070913          	mv	s2,a4
    13a4:	000077b7          	lui	a5,0x7
    13a8:	9a078593          	addi	a1,a5,-1632 # 69a0 <__clzsi2+0x5b0>
    13ac:	000b0513          	mv	a0,s6
    13b0:	0974d863          	bge	s1,s7,1440 <llama_main+0xac8>
    13b4:	004aa783          	lw	a5,4(s5)
    13b8:	000aa683          	lw	a3,0(s5)
    13bc:	14c12703          	lw	a4,332(sp)
    13c0:	00279793          	slli	a5,a5,0x2
    13c4:	00269693          	slli	a3,a3,0x2
    13c8:	00f707b3          	add	a5,a4,a5
    13cc:	00d70733          	add	a4,a4,a3
    13d0:	00072603          	lw	a2,0(a4)
    13d4:	0007a683          	lw	a3,0(a5)
    13d8:	418020ef          	jal	37f0 <sprintf>
    13dc:	15412583          	lw	a1,340(sp)
    13e0:	15812603          	lw	a2,344(sp)
    13e4:	06012503          	lw	a0,96(sp)
    13e8:	72c00713          	li	a4,1836
    13ec:	00800693          	li	a3,8
    13f0:	14012423          	sw	zero,328(sp)
    13f4:	15612223          	sw	s6,324(sp)
    13f8:	6a0010ef          	jal	2a98 <bsearch>
    13fc:	00090593          	mv	a1,s2
    1400:	f80506e3          	beqz	a0,138c <llama_main+0xa14>
    1404:	00452783          	lw	a5,4(a0)
    1408:	00f12423          	sw	a5,8(sp)
    140c:	00279693          	slli	a3,a5,0x2
    1410:	f7478ee3          	beq	a5,s4,138c <llama_main+0xa14>
    1414:	15012703          	lw	a4,336(sp)
    1418:	00d70733          	add	a4,a4,a3
    141c:	00072703          	lw	a4,0(a4)
    1420:	00070513          	mv	a0,a4
    1424:	02e12423          	sw	a4,40(sp)
    1428:	4c0040ef          	jal	58e8 <__gesf2>
    142c:	02812703          	lw	a4,40(sp)
    1430:	00812783          	lw	a5,8(sp)
    1434:	f4a05ce3          	blez	a0,138c <llama_main+0xa14>
    1438:	00048413          	mv	s0,s1
    143c:	f59ff06f          	j	1394 <llama_main+0xa1c>
    1440:	01412903          	lw	s2,20(sp)
    1444:	01812603          	lw	a2,24(sp)
    1448:	01c12703          	lw	a4,28(sp)
    144c:	000c0893          	mv	a7,s8
    1450:	03440c63          	beq	s0,s4,1488 <llama_main+0xb10>
    1454:	05812703          	lw	a4,88(sp)
    1458:	00241793          	slli	a5,s0,0x2
    145c:	00f707b3          	add	a5,a4,a5
    1460:	0137a023          	sw	s3,0(a5)
    1464:	00140713          	addi	a4,s0,1
    1468:	0100006f          	j	1478 <llama_main+0xb00>
    146c:	0047a683          	lw	a3,4(a5)
    1470:	00170713          	addi	a4,a4,1
    1474:	00d7a023          	sw	a3,0(a5)
    1478:	00478793          	addi	a5,a5,4
    147c:	ff7748e3          	blt	a4,s7,146c <llama_main+0xaf4>
    1480:	000b8713          	mv	a4,s7
    1484:	ed1ff06f          	j	1354 <llama_main+0x9dc>
    1488:	00060c93          	mv	s9,a2
    148c:	00070a93          	mv	s5,a4
    1490:	01812423          	sw	s8,8(sp)
    1494:	04c010ef          	jal	24e0 <free>
    1498:	00812883          	lw	a7,8(sp)
    149c:	01504463          	bgtz	s5,14a4 <llama_main+0xb2c>
    14a0:	7550006f          	j	23f4 <llama_main+0x1a7c>
    14a4:	00c12583          	lw	a1,12(sp)
    14a8:	00291513          	slli	a0,s2,0x2
    14ac:	04a12223          	sw	a0,68(sp)
    14b0:	03812503          	lw	a0,56(sp)
    14b4:	00259713          	slli	a4,a1,0x2
    14b8:	00e12823          	sw	a4,16(sp)
    14bc:	00a70833          	add	a6,a4,a0
    14c0:	0f012823          	sw	a6,240(sp)
    14c4:	02012803          	lw	a6,32(sp)
    14c8:	002d9793          	slli	a5,s11,0x2
    14cc:	03b90ab3          	mul	s5,s2,s11
    14d0:	00e80733          	add	a4,a6,a4
    14d4:	0ee12a23          	sw	a4,244(sp)
    14d8:	06812703          	lw	a4,104(sp)
    14dc:	00007637          	lui	a2,0x7
    14e0:	000076b7          	lui	a3,0x7
    14e4:	00f70733          	add	a4,a4,a5
    14e8:	00fd07b3          	add	a5,s10,a5
    14ec:	10f12823          	sw	a5,272(sp)
    14f0:	02412783          	lw	a5,36(sp)
    14f4:	10e12a23          	sw	a4,276(sp)
    14f8:	04c12703          	lw	a4,76(sp)
    14fc:	0397c7b3          	div	a5,a5,s9
    1500:	08012423          	sw	zero,136(sp)
    1504:	00000c93          	li	s9,0
    1508:	000b8a13          	mv	s4,s7
    150c:	02f12e23          	sw	a5,60(sp)
    1510:	002a9793          	slli	a5,s5,0x2
    1514:	10f12223          	sw	a5,260(sp)
    1518:	cec62783          	lw	a5,-788(a2) # 6cec <__text_end+0xc>
    151c:	04f12423          	sw	a5,72(sp)
    1520:	ce46a783          	lw	a5,-796(a3) # 6ce4 <__text_end+0x4>
    1524:	00f12623          	sw	a5,12(sp)
    1528:	05812783          	lw	a5,88(sp)
    152c:	0007a783          	lw	a5,0(a5)
    1530:	08f12023          	sw	a5,128(sp)
    1534:	0b012783          	lw	a5,176(sp)
    1538:	00e78733          	add	a4,a5,a4
    153c:	08e12e23          	sw	a4,156(sp)
    1540:	00f80733          	add	a4,a6,a5
    1544:	0ee12e23          	sw	a4,252(sp)
    1548:	00a78733          	add	a4,a5,a0
    154c:	0ee12c23          	sw	a4,248(sp)
    1550:	06412703          	lw	a4,100(sp)
    1554:	00f707b3          	add	a5,a4,a5
    1558:	0cf12023          	sw	a5,192(sp)
    155c:	05c12703          	lw	a4,92(sp)
    1560:	07412783          	lw	a5,116(sp)
    1564:	00f709b3          	add	s3,a4,a5
    1568:	05412703          	lw	a4,84(sp)
    156c:	00f707b3          	add	a5,a4,a5
    1570:	0af12c23          	sw	a5,184(sp)
    1574:	08c12783          	lw	a5,140(sp)
    1578:	06c12703          	lw	a4,108(sp)
    157c:	00412b03          	lw	s6,4(sp)
    1580:	41f7d793          	srai	a5,a5,0x1f
    1584:	0af12623          	sw	a5,172(sp)
    1588:	02c12783          	lw	a5,44(sp)
    158c:	00012c03          	lw	s8,0(sp)
    1590:	05a12823          	sw	s10,80(sp)
    1594:	02e78733          	mul	a4,a5,a4
    1598:	00058d13          	mv	s10,a1
    159c:	11512e23          	sw	s5,284(sp)
    15a0:	03112423          	sw	a7,40(sp)
    15a4:	10e12023          	sw	a4,256(sp)
    15a8:	03b78733          	mul	a4,a5,s11
    15ac:	02f787b3          	mul	a5,a5,a5
    15b0:	10e12423          	sw	a4,264(sp)
    15b4:	10f12623          	sw	a5,268(sp)
    15b8:	02c12703          	lw	a4,44(sp)
    15bc:	08012783          	lw	a5,128(sp)
    15c0:	02812403          	lw	s0,40(sp)
    15c4:	0b012b83          	lw	s7,176(sp)
    15c8:	02e787b3          	mul	a5,a5,a4
    15cc:	04c12503          	lw	a0,76(sp)
    15d0:	100005b7          	lui	a1,0x10000
    15d4:	01c58593          	addi	a1,a1,28 # 1000001c <__heap_start+0x1c>
    15d8:	fff40713          	addi	a4,s0,-1
    15dc:	000b8613          	mv	a2,s7
    15e0:	02e12823          	sw	a4,48(sp)
    15e4:	00241493          	slli	s1,s0,0x2
    15e8:	00279793          	slli	a5,a5,0x2
    15ec:	00b785b3          	add	a1,a5,a1
    15f0:	78d000ef          	jal	257c <memcpy>
    15f4:	08412783          	lw	a5,132(sp)
    15f8:	13412823          	sw	s4,304(sp)
    15fc:	00098a13          	mv	s4,s3
    1600:	009787b3          	add	a5,a5,s1
    1604:	0ef12623          	sw	a5,236(sp)
    1608:	0d812783          	lw	a5,216(sp)
    160c:	0f812983          	lw	s3,248(sp)
    1610:	13912423          	sw	s9,296(sp)
    1614:	08f12a23          	sw	a5,148(sp)
    1618:	002c9793          	slli	a5,s9,0x2
    161c:	06f12c23          	sw	a5,120(sp)
    1620:	0c412783          	lw	a5,196(sp)
    1624:	02012a23          	sw	zero,52(sp)
    1628:	0a012223          	sw	zero,164(sp)
    162c:	0af12023          	sw	a5,160(sp)
    1630:	08012c23          	sw	zero,152(sp)
    1634:	08012823          	sw	zero,144(sp)
    1638:	0a012423          	sw	zero,168(sp)
    163c:	06012e23          	sw	zero,124(sp)
    1640:	13612023          	sw	s6,288(sp)
    1644:	13812223          	sw	s8,292(sp)
    1648:	000d0c93          	mv	s9,s10
    164c:	12912623          	sw	s1,300(sp)
    1650:	0ac12783          	lw	a5,172(sp)
    1654:	07c12703          	lw	a4,124(sp)
    1658:	12f770e3          	bgeu	a4,a5,1f78 <llama_main+0x1600>
    165c:	02c12403          	lw	s0,44(sp)
    1660:	03812d03          	lw	s10,56(sp)
    1664:	0a012603          	lw	a2,160(sp)
    1668:	04c12583          	lw	a1,76(sp)
    166c:	00040693          	mv	a3,s0
    1670:	000d0513          	mv	a0,s10
    1674:	8c4ff0ef          	jal	738 <rmsnorm>
    1678:	06812783          	lw	a5,104(sp)
    167c:	07812603          	lw	a2,120(sp)
    1680:	00c78c33          	add	s8,a5,a2
    1684:	0a412783          	lw	a5,164(sp)
    1688:	00279793          	slli	a5,a5,0x2
    168c:	10f12c23          	sw	a5,280(sp)
    1690:	0a8056e3          	blez	s0,1f3c <llama_main+0x15c4>
    1694:	0c812703          	lw	a4,200(sp)
    1698:	02012a83          	lw	s5,32(sp)
    169c:	01412023          	sw	s4,0(sp)
    16a0:	00f70b33          	add	s6,a4,a5
    16a4:	0fc12a03          	lw	s4,252(sp)
    16a8:	000b0793          	mv	a5,s6
    16ac:	000a8b13          	mv	s6,s5
    16b0:	00078a93          	mv	s5,a5
    16b4:	000d0493          	mv	s1,s10
    16b8:	000a8913          	mv	s2,s5
    16bc:	00000413          	li	s0,0
    16c0:	0004a583          	lw	a1,0(s1)
    16c4:	00092503          	lw	a0,0(s2)
    16c8:	00448493          	addi	s1,s1,4
    16cc:	00490913          	addi	s2,s2,4
    16d0:	358040ef          	jal	5a28 <__mulsf3>
    16d4:	00050593          	mv	a1,a0
    16d8:	00040513          	mv	a0,s0
    16dc:	259030ef          	jal	5134 <__addsf3>
    16e0:	00050413          	mv	s0,a0
    16e4:	fd349ee3          	bne	s1,s3,16c0 <llama_main+0xd48>
    16e8:	00ab2023          	sw	a0,0(s6)
    16ec:	004b0b13          	addi	s6,s6,4
    16f0:	017a8ab3          	add	s5,s5,s7
    16f4:	fd4b10e3          	bne	s6,s4,16b4 <llama_main+0xd3c>
    16f8:	09812783          	lw	a5,152(sp)
    16fc:	00012a03          	lw	s4,0(sp)
    1700:	00279493          	slli	s1,a5,0x2
    1704:	07b05c63          	blez	s11,177c <llama_main+0xe04>
    1708:	0cc12783          	lw	a5,204(sp)
    170c:	11412703          	lw	a4,276(sp)
    1710:	000c0a93          	mv	s5,s8
    1714:	00978b33          	add	s6,a5,s1
    1718:	07812783          	lw	a5,120(sp)
    171c:	00e78d33          	add	s10,a5,a4
    1720:	02c12783          	lw	a5,44(sp)
    1724:	7af04863          	bgtz	a5,1ed4 <llama_main+0x155c>
    1728:	00000713          	li	a4,0
    172c:	00eaa023          	sw	a4,0(s5)
    1730:	004a8a93          	addi	s5,s5,4
    1734:	017b0b33          	add	s6,s6,s7
    1738:	ffaa96e3          	bne	s5,s10,1724 <llama_main+0xdac>
    173c:	0d012783          	lw	a5,208(sp)
    1740:	05012703          	lw	a4,80(sp)
    1744:	00978b33          	add	s6,a5,s1
    1748:	07812783          	lw	a5,120(sp)
    174c:	00f70ab3          	add	s5,a4,a5
    1750:	11012703          	lw	a4,272(sp)
    1754:	00e78d33          	add	s10,a5,a4
    1758:	02c12783          	lw	a5,44(sp)
    175c:	70f04c63          	bgtz	a5,1e74 <llama_main+0x14fc>
    1760:	00000713          	li	a4,0
    1764:	00eaa023          	sw	a4,0(s5)
    1768:	004a8a93          	addi	s5,s5,4
    176c:	017b0b33          	add	s6,s6,s7
    1770:	ffaa96e3          	bne	s5,s10,175c <llama_main+0xde4>
    1774:	02c12783          	lw	a5,44(sp)
    1778:	7cf05863          	blez	a5,1f48 <llama_main+0x15d0>
    177c:	000c8513          	mv	a0,s9
    1780:	275040ef          	jal	61f4 <__floatsisf>
    1784:	00000d13          	li	s10,0
    1788:	01712023          	sw	s7,0(sp)
    178c:	01312423          	sw	s3,8(sp)
    1790:	02012403          	lw	s0,32(sp)
    1794:	02c12a83          	lw	s5,44(sp)
    1798:	01412223          	sw	s4,4(sp)
    179c:	00050b93          	mv	s7,a0
    17a0:	000d0993          	mv	s3,s10
    17a4:	0d40006f          	j	1878 <llama_main+0xf00>
    17a8:	00042b03          	lw	s6,0(s0)
    17ac:	00442d03          	lw	s10,4(s0)
    17b0:	00048513          	mv	a0,s1
    17b4:	000b0593          	mv	a1,s6
    17b8:	270040ef          	jal	5a28 <__mulsf3>
    17bc:	00050a13          	mv	s4,a0
    17c0:	000d0593          	mv	a1,s10
    17c4:	00090513          	mv	a0,s2
    17c8:	260040ef          	jal	5a28 <__mulsf3>
    17cc:	00050593          	mv	a1,a0
    17d0:	000a0513          	mv	a0,s4
    17d4:	570040ef          	jal	5d44 <__subsf3>
    17d8:	000d0593          	mv	a1,s10
    17dc:	00a42023          	sw	a0,0(s0)
    17e0:	00048513          	mv	a0,s1
    17e4:	244040ef          	jal	5a28 <__mulsf3>
    17e8:	00050a13          	mv	s4,a0
    17ec:	000b0593          	mv	a1,s6
    17f0:	00090513          	mv	a0,s2
    17f4:	234040ef          	jal	5a28 <__mulsf3>
    17f8:	00050593          	mv	a1,a0
    17fc:	000a0513          	mv	a0,s4
    1800:	135030ef          	jal	5134 <__addsf3>
    1804:	00a42223          	sw	a0,4(s0)
    1808:	000c2b03          	lw	s6,0(s8) # 7000 <tok_copy_bram+0x274>
    180c:	004c2d03          	lw	s10,4(s8)
    1810:	00048513          	mv	a0,s1
    1814:	000b0593          	mv	a1,s6
    1818:	210040ef          	jal	5a28 <__mulsf3>
    181c:	00050a13          	mv	s4,a0
    1820:	000d0593          	mv	a1,s10
    1824:	00090513          	mv	a0,s2
    1828:	200040ef          	jal	5a28 <__mulsf3>
    182c:	00050593          	mv	a1,a0
    1830:	000a0513          	mv	a0,s4
    1834:	510040ef          	jal	5d44 <__subsf3>
    1838:	000d0593          	mv	a1,s10
    183c:	00ac2023          	sw	a0,0(s8)
    1840:	00048513          	mv	a0,s1
    1844:	1e4040ef          	jal	5a28 <__mulsf3>
    1848:	00050493          	mv	s1,a0
    184c:	000b0593          	mv	a1,s6
    1850:	00090513          	mv	a0,s2
    1854:	1d4040ef          	jal	5a28 <__mulsf3>
    1858:	00050593          	mv	a1,a0
    185c:	00048513          	mv	a0,s1
    1860:	0d5030ef          	jal	5134 <__addsf3>
    1864:	00ac2223          	sw	a0,4(s8)
    1868:	00298993          	addi	s3,s3,2
    186c:	008c0c13          	addi	s8,s8,8
    1870:	00840413          	addi	s0,s0,8
    1874:	0d59d463          	bge	s3,s5,193c <llama_main+0xfc4>
    1878:	0399e533          	rem	a0,s3,s9
    187c:	179040ef          	jal	61f4 <__floatsisf>
    1880:	000b8593          	mv	a1,s7
    1884:	4e1030ef          	jal	5564 <__divsf3>
    1888:	00050593          	mv	a1,a0
    188c:	04812503          	lw	a0,72(sp)
    1890:	0ed010ef          	jal	317c <powf>
    1894:	00050593          	mv	a1,a0
    1898:	00c12503          	lw	a0,12(sp)
    189c:	4c9030ef          	jal	5564 <__divsf3>
    18a0:	00050493          	mv	s1,a0
    18a4:	03012503          	lw	a0,48(sp)
    18a8:	14d040ef          	jal	61f4 <__floatsisf>
    18ac:	00050593          	mv	a1,a0
    18b0:	00048513          	mv	a0,s1
    18b4:	174040ef          	jal	5a28 <__mulsf3>
    18b8:	00050913          	mv	s2,a0
    18bc:	35d010ef          	jal	3418 <cosf>
    18c0:	00050493          	mv	s1,a0
    18c4:	00090513          	mv	a0,s2
    18c8:	529010ef          	jal	35f0 <sinf>
    18cc:	00050913          	mv	s2,a0
    18d0:	edb9cce3          	blt	s3,s11,17a8 <llama_main+0xe30>
    18d4:	00042b03          	lw	s6,0(s0)
    18d8:	00442d03          	lw	s10,4(s0)
    18dc:	00048513          	mv	a0,s1
    18e0:	000b0593          	mv	a1,s6
    18e4:	144040ef          	jal	5a28 <__mulsf3>
    18e8:	00050a13          	mv	s4,a0
    18ec:	000d0593          	mv	a1,s10
    18f0:	00090513          	mv	a0,s2
    18f4:	134040ef          	jal	5a28 <__mulsf3>
    18f8:	00050593          	mv	a1,a0
    18fc:	000a0513          	mv	a0,s4
    1900:	444040ef          	jal	5d44 <__subsf3>
    1904:	000b0593          	mv	a1,s6
    1908:	00a42023          	sw	a0,0(s0)
    190c:	00090513          	mv	a0,s2
    1910:	118040ef          	jal	5a28 <__mulsf3>
    1914:	00050713          	mv	a4,a0
    1918:	000d0593          	mv	a1,s10
    191c:	00048513          	mv	a0,s1
    1920:	00070493          	mv	s1,a4
    1924:	104040ef          	jal	5a28 <__mulsf3>
    1928:	00050593          	mv	a1,a0
    192c:	00048513          	mv	a0,s1
    1930:	005030ef          	jal	5134 <__addsf3>
    1934:	00a42223          	sw	a0,4(s0)
    1938:	f31ff06f          	j	1868 <llama_main+0xef0>
    193c:	02412783          	lw	a5,36(sp)
    1940:	00012b83          	lw	s7,0(sp)
    1944:	00412a03          	lw	s4,4(sp)
    1948:	00812983          	lw	s3,8(sp)
    194c:	1cf05c63          	blez	a5,1b24 <llama_main+0x11ac>
    1950:	000c8513          	mv	a0,s9
    1954:	0a1040ef          	jal	61f4 <__floatsisf>
    1958:	08412783          	lw	a5,132(sp)
    195c:	0f412903          	lw	s2,244(sp)
    1960:	0f012483          	lw	s1,240(sp)
    1964:	03812b03          	lw	s6,56(sp)
    1968:	0ec12a83          	lw	s5,236(sp)
    196c:	06812d03          	lw	s10,104(sp)
    1970:	04a12023          	sw	a0,64(sp)
    1974:	00f12023          	sw	a5,0(sp)
    1978:	00012223          	sw	zero,4(sp)
    197c:	00012423          	sw	zero,8(sp)
    1980:	13712a23          	sw	s7,308(sp)
    1984:	13412c23          	sw	s4,312(sp)
    1988:	13312e23          	sw	s3,316(sp)
    198c:	03c12703          	lw	a4,60(sp)
    1990:	00412783          	lw	a5,4(sp)
    1994:	00012b83          	lw	s7,0(sp)
    1998:	00912e23          	sw	s1,28(sp)
    199c:	02e7c7b3          	div	a5,a5,a4
    19a0:	00812703          	lw	a4,8(sp)
    19a4:	000b8493          	mv	s1,s7
    19a8:	01612c23          	sw	s6,24(sp)
    19ac:	00271a13          	slli	s4,a4,0x2
    19b0:	02012703          	lw	a4,32(sp)
    19b4:	01470a33          	add	s4,a4,s4
    19b8:	03412703          	lw	a4,52(sp)
    19bc:	000a0b93          	mv	s7,s4
    19c0:	04012a03          	lw	s4,64(sp)
    19c4:	039787b3          	mul	a5,a5,s9
    19c8:	00e78c33          	add	s8,a5,a4
    19cc:	000c0993          	mv	s3,s8
    19d0:	01812a23          	sw	s8,20(sp)
    19d4:	39905663          	blez	s9,1d60 <llama_main+0x13e8>
    19d8:	00299713          	slli	a4,s3,0x2
    19dc:	00ed0c33          	add	s8,s10,a4
    19e0:	000b8b13          	mv	s6,s7
    19e4:	00000413          	li	s0,0
    19e8:	000c2583          	lw	a1,0(s8)
    19ec:	000b2503          	lw	a0,0(s6)
    19f0:	004b0b13          	addi	s6,s6,4
    19f4:	004c0c13          	addi	s8,s8,4
    19f8:	030040ef          	jal	5a28 <__mulsf3>
    19fc:	00050593          	mv	a1,a0
    1a00:	00040513          	mv	a0,s0
    1a04:	730030ef          	jal	5134 <__addsf3>
    1a08:	00050413          	mv	s0,a0
    1a0c:	fd2b1ee3          	bne	s6,s2,19e8 <llama_main+0x1070>
    1a10:	000a0513          	mv	a0,s4
    1a14:	588010ef          	jal	2f9c <sqrtf>
    1a18:	00050593          	mv	a1,a0
    1a1c:	00040513          	mv	a0,s0
    1a20:	345030ef          	jal	5564 <__divsf3>
    1a24:	00a4a023          	sw	a0,0(s1)
    1a28:	00448493          	addi	s1,s1,4
    1a2c:	01b989b3          	add	s3,s3,s11
    1a30:	fb5492e3          	bne	s1,s5,19d4 <llama_main+0x105c>
    1a34:	00012b83          	lw	s7,0(sp)
    1a38:	02812583          	lw	a1,40(sp)
    1a3c:	01812b03          	lw	s6,24(sp)
    1a40:	000b8513          	mv	a0,s7
    1a44:	01412c03          	lw	s8,20(sp)
    1a48:	01c12483          	lw	s1,28(sp)
    1a4c:	e29fe0ef          	jal	874 <softmax>
    1a50:	01012603          	lw	a2,16(sp)
    1a54:	000b0513          	mv	a0,s6
    1a58:	00000593          	li	a1,0
    1a5c:	39d000ef          	jal	25f8 <memset>
    1a60:	07905063          	blez	s9,1ac0 <llama_main+0x1148>
    1a64:	000ba403          	lw	s0,0(s7)
    1a68:	01212a23          	sw	s2,20(sp)
    1a6c:	000c0913          	mv	s2,s8
    1a70:	000b8c13          	mv	s8,s7
    1a74:	05012b83          	lw	s7,80(sp)
    1a78:	00291a13          	slli	s4,s2,0x2
    1a7c:	014b8a33          	add	s4,s7,s4
    1a80:	000b0993          	mv	s3,s6
    1a84:	000a2583          	lw	a1,0(s4)
    1a88:	00040513          	mv	a0,s0
    1a8c:	00498993          	addi	s3,s3,4
    1a90:	799030ef          	jal	5a28 <__mulsf3>
    1a94:	00050593          	mv	a1,a0
    1a98:	ffc9a503          	lw	a0,-4(s3)
    1a9c:	004a0a13          	addi	s4,s4,4
    1aa0:	694030ef          	jal	5134 <__addsf3>
    1aa4:	fea9ae23          	sw	a0,-4(s3)
    1aa8:	fc999ee3          	bne	s3,s1,1a84 <llama_main+0x110c>
    1aac:	004c0c13          	addi	s8,s8,4
    1ab0:	01b90933          	add	s2,s2,s11
    1ab4:	2b5c0a63          	beq	s8,s5,1d68 <llama_main+0x13f0>
    1ab8:	000c2403          	lw	s0,0(s8)
    1abc:	fbdff06f          	j	1a78 <llama_main+0x1100>
    1ac0:	004b8b93          	addi	s7,s7,4
    1ac4:	01bc0c33          	add	s8,s8,s11
    1ac8:	f95b9ce3          	bne	s7,s5,1a60 <llama_main+0x10e8>
    1acc:	00412783          	lw	a5,4(sp)
    1ad0:	00012683          	lw	a3,0(sp)
    1ad4:	00178713          	addi	a4,a5,1
    1ad8:	04412783          	lw	a5,68(sp)
    1adc:	00e12223          	sw	a4,4(sp)
    1ae0:	00fa8ab3          	add	s5,s5,a5
    1ae4:	00f687b3          	add	a5,a3,a5
    1ae8:	00f12023          	sw	a5,0(sp)
    1aec:	01012783          	lw	a5,16(sp)
    1af0:	00812683          	lw	a3,8(sp)
    1af4:	00fb0b33          	add	s6,s6,a5
    1af8:	00f484b3          	add	s1,s1,a5
    1afc:	00f90933          	add	s2,s2,a5
    1b00:	02412783          	lw	a5,36(sp)
    1b04:	019686b3          	add	a3,a3,s9
    1b08:	00d12423          	sw	a3,8(sp)
    1b0c:	e8f740e3          	blt	a4,a5,198c <llama_main+0x1014>
    1b10:	02c12783          	lw	a5,44(sp)
    1b14:	13412b83          	lw	s7,308(sp)
    1b18:	13812a03          	lw	s4,312(sp)
    1b1c:	13c12983          	lw	s3,316(sp)
    1b20:	42f05863          	blez	a5,1f50 <llama_main+0x15d8>
    1b24:	0d412783          	lw	a5,212(sp)
    1b28:	11812703          	lw	a4,280(sp)
    1b2c:	06412a83          	lw	s5,100(sp)
    1b30:	0c012c03          	lw	s8,192(sp)
    1b34:	03812d03          	lw	s10,56(sp)
    1b38:	00e78b33          	add	s6,a5,a4
    1b3c:	000d0493          	mv	s1,s10
    1b40:	000b0913          	mv	s2,s6
    1b44:	00000413          	li	s0,0
    1b48:	0004a583          	lw	a1,0(s1)
    1b4c:	00092503          	lw	a0,0(s2)
    1b50:	00448493          	addi	s1,s1,4
    1b54:	00490913          	addi	s2,s2,4
    1b58:	6d1030ef          	jal	5a28 <__mulsf3>
    1b5c:	00050593          	mv	a1,a0
    1b60:	00040513          	mv	a0,s0
    1b64:	5d0030ef          	jal	5134 <__addsf3>
    1b68:	00050413          	mv	s0,a0
    1b6c:	fd349ee3          	bne	s1,s3,1b48 <llama_main+0x11d0>
    1b70:	00aaa023          	sw	a0,0(s5)
    1b74:	004a8a93          	addi	s5,s5,4
    1b78:	017b0b33          	add	s6,s6,s7
    1b7c:	fd5c10e3          	bne	s8,s5,1b3c <llama_main+0x11c4>
    1b80:	06412483          	lw	s1,100(sp)
    1b84:	04c12403          	lw	s0,76(sp)
    1b88:	09c12903          	lw	s2,156(sp)
    1b8c:	0004a583          	lw	a1,0(s1)
    1b90:	00042503          	lw	a0,0(s0)
    1b94:	00440413          	addi	s0,s0,4
    1b98:	00448493          	addi	s1,s1,4
    1b9c:	598030ef          	jal	5134 <__addsf3>
    1ba0:	fea42e23          	sw	a0,-4(s0)
    1ba4:	ff2414e3          	bne	s0,s2,1b8c <llama_main+0x1214>
    1ba8:	02c12683          	lw	a3,44(sp)
    1bac:	09412603          	lw	a2,148(sp)
    1bb0:	04c12583          	lw	a1,76(sp)
    1bb4:	03812503          	lw	a0,56(sp)
    1bb8:	b81fe0ef          	jal	738 <rmsnorm>
    1bbc:	09012783          	lw	a5,144(sp)
    1bc0:	00279913          	slli	s2,a5,0x2
    1bc4:	06c12783          	lw	a5,108(sp)
    1bc8:	0af05e63          	blez	a5,1c84 <llama_main+0x130c>
    1bcc:	0dc12783          	lw	a5,220(sp)
    1bd0:	05c12b03          	lw	s6,92(sp)
    1bd4:	01278c33          	add	s8,a5,s2
    1bd8:	02c12783          	lw	a5,44(sp)
    1bdc:	24f04663          	bgtz	a5,1e28 <llama_main+0x14b0>
    1be0:	00000713          	li	a4,0
    1be4:	00eb2023          	sw	a4,0(s6)
    1be8:	004b0b13          	addi	s6,s6,4
    1bec:	017c0c33          	add	s8,s8,s7
    1bf0:	ff6a16e3          	bne	s4,s6,1bdc <llama_main+0x1264>
    1bf4:	0e412783          	lw	a5,228(sp)
    1bf8:	05412b03          	lw	s6,84(sp)
    1bfc:	01278c33          	add	s8,a5,s2
    1c00:	02c12783          	lw	a5,44(sp)
    1c04:	1af04e63          	bgtz	a5,1dc0 <llama_main+0x1448>
    1c08:	00000713          	li	a4,0
    1c0c:	00eb2023          	sw	a4,0(s6)
    1c10:	0b812703          	lw	a4,184(sp)
    1c14:	004b0b13          	addi	s6,s6,4
    1c18:	017c0c33          	add	s8,s8,s7
    1c1c:	ff6714e3          	bne	a4,s6,1c04 <llama_main+0x128c>
    1c20:	05412403          	lw	s0,84(sp)
    1c24:	05c12a83          	lw	s5,92(sp)
    1c28:	06c12d03          	lw	s10,108(sp)
    1c2c:	00000b13          	li	s6,0
    1c30:	800004b7          	lui	s1,0x80000
    1c34:	000aac03          	lw	s8,0(s5)
    1c38:	001b0b13          	addi	s6,s6,1
    1c3c:	00440413          	addi	s0,s0,4
    1c40:	0184c533          	xor	a0,s1,s8
    1c44:	494010ef          	jal	30d8 <expf>
    1c48:	00c12583          	lw	a1,12(sp)
    1c4c:	004a8a93          	addi	s5,s5,4
    1c50:	4e4030ef          	jal	5134 <__addsf3>
    1c54:	00050593          	mv	a1,a0
    1c58:	00c12503          	lw	a0,12(sp)
    1c5c:	109030ef          	jal	5564 <__divsf3>
    1c60:	000c0593          	mv	a1,s8
    1c64:	5c5030ef          	jal	5a28 <__mulsf3>
    1c68:	00050593          	mv	a1,a0
    1c6c:	ffc42503          	lw	a0,-4(s0)
    1c70:	5b9030ef          	jal	5a28 <__mulsf3>
    1c74:	feaaae23          	sw	a0,-4(s5)
    1c78:	fbab1ee3          	bne	s6,s10,1c34 <llama_main+0x12bc>
    1c7c:	02c12783          	lw	a5,44(sp)
    1c80:	04f05c63          	blez	a5,1cd8 <llama_main+0x1360>
    1c84:	0e012783          	lw	a5,224(sp)
    1c88:	03812a83          	lw	s5,56(sp)
    1c8c:	01278b33          	add	s6,a5,s2
    1c90:	06c12783          	lw	a5,108(sp)
    1c94:	0cf04e63          	bgtz	a5,1d70 <llama_main+0x13f8>
    1c98:	00000713          	li	a4,0
    1c9c:	00eaa023          	sw	a4,0(s5)
    1ca0:	07412703          	lw	a4,116(sp)
    1ca4:	004a8a93          	addi	s5,s5,4
    1ca8:	00eb0b33          	add	s6,s6,a4
    1cac:	ff3a94e3          	bne	s5,s3,1c94 <llama_main+0x131c>
    1cb0:	03812483          	lw	s1,56(sp)
    1cb4:	04c12403          	lw	s0,76(sp)
    1cb8:	09c12903          	lw	s2,156(sp)
    1cbc:	0004a583          	lw	a1,0(s1) # 80000000 <__heap_end+0x6c000000>
    1cc0:	00042503          	lw	a0,0(s0)
    1cc4:	00440413          	addi	s0,s0,4
    1cc8:	00448493          	addi	s1,s1,4
    1ccc:	468030ef          	jal	5134 <__addsf3>
    1cd0:	fea42e23          	sw	a0,-4(s0)
    1cd4:	ff2414e3          	bne	s0,s2,1cbc <llama_main+0x1344>
    1cd8:	09012683          	lw	a3,144(sp)
    1cdc:	10012603          	lw	a2,256(sp)
    1ce0:	0a812703          	lw	a4,168(sp)
    1ce4:	00c686b3          	add	a3,a3,a2
    1ce8:	08d12823          	sw	a3,144(sp)
    1cec:	09412683          	lw	a3,148(sp)
    1cf0:	10412603          	lw	a2,260(sp)
    1cf4:	00170793          	addi	a5,a4,1
    1cf8:	017686b3          	add	a3,a3,s7
    1cfc:	08d12a23          	sw	a3,148(sp)
    1d00:	07812683          	lw	a3,120(sp)
    1d04:	00e7b733          	sltu	a4,a5,a4
    1d08:	0af12423          	sw	a5,168(sp)
    1d0c:	00c686b3          	add	a3,a3,a2
    1d10:	06d12c23          	sw	a3,120(sp)
    1d14:	10812603          	lw	a2,264(sp)
    1d18:	09812683          	lw	a3,152(sp)
    1d1c:	00c686b3          	add	a3,a3,a2
    1d20:	08d12c23          	sw	a3,152(sp)
    1d24:	0a012683          	lw	a3,160(sp)
    1d28:	10c12603          	lw	a2,268(sp)
    1d2c:	017686b3          	add	a3,a3,s7
    1d30:	0ad12023          	sw	a3,160(sp)
    1d34:	0a412683          	lw	a3,164(sp)
    1d38:	00c686b3          	add	a3,a3,a2
    1d3c:	0ad12223          	sw	a3,164(sp)
    1d40:	11c12603          	lw	a2,284(sp)
    1d44:	03412683          	lw	a3,52(sp)
    1d48:	00c686b3          	add	a3,a3,a2
    1d4c:	02d12a23          	sw	a3,52(sp)
    1d50:	07c12683          	lw	a3,124(sp)
    1d54:	00d70733          	add	a4,a4,a3
    1d58:	06e12e23          	sw	a4,124(sp)
    1d5c:	8f5ff06f          	j	1650 <llama_main+0xcd8>
    1d60:	00000413          	li	s0,0
    1d64:	cadff06f          	j	1a10 <llama_main+0x1098>
    1d68:	01412903          	lw	s2,20(sp)
    1d6c:	d61ff06f          	j	1acc <llama_main+0x1154>
    1d70:	05c12c03          	lw	s8,92(sp)
    1d74:	07412d03          	lw	s10,116(sp)
    1d78:	000c0493          	mv	s1,s8
    1d7c:	000b0913          	mv	s2,s6
    1d80:	00000413          	li	s0,0
    1d84:	0004a583          	lw	a1,0(s1)
    1d88:	00092503          	lw	a0,0(s2)
    1d8c:	00448493          	addi	s1,s1,4
    1d90:	00490913          	addi	s2,s2,4
    1d94:	495030ef          	jal	5a28 <__mulsf3>
    1d98:	00050593          	mv	a1,a0
    1d9c:	00040513          	mv	a0,s0
    1da0:	394030ef          	jal	5134 <__addsf3>
    1da4:	00050413          	mv	s0,a0
    1da8:	fc9a1ee3          	bne	s4,s1,1d84 <llama_main+0x140c>
    1dac:	00aaa023          	sw	a0,0(s5)
    1db0:	004a8a93          	addi	s5,s5,4
    1db4:	01ab0b33          	add	s6,s6,s10
    1db8:	fd3a90e3          	bne	s5,s3,1d78 <llama_main+0x1400>
    1dbc:	ef5ff06f          	j	1cb0 <llama_main+0x1338>
    1dc0:	01412023          	sw	s4,0(sp)
    1dc4:	03812d03          	lw	s10,56(sp)
    1dc8:	000c0a13          	mv	s4,s8
    1dcc:	000b0c13          	mv	s8,s6
    1dd0:	00090b13          	mv	s6,s2
    1dd4:	0b812903          	lw	s2,184(sp)
    1dd8:	000d0493          	mv	s1,s10
    1ddc:	000a0a93          	mv	s5,s4
    1de0:	00000413          	li	s0,0
    1de4:	0004a583          	lw	a1,0(s1)
    1de8:	000aa503          	lw	a0,0(s5)
    1dec:	00448493          	addi	s1,s1,4
    1df0:	004a8a93          	addi	s5,s5,4
    1df4:	435030ef          	jal	5a28 <__mulsf3>
    1df8:	00050593          	mv	a1,a0
    1dfc:	00040513          	mv	a0,s0
    1e00:	334030ef          	jal	5134 <__addsf3>
    1e04:	00050413          	mv	s0,a0
    1e08:	fd349ee3          	bne	s1,s3,1de4 <llama_main+0x146c>
    1e0c:	00ac2023          	sw	a0,0(s8)
    1e10:	004c0c13          	addi	s8,s8,4
    1e14:	017a0a33          	add	s4,s4,s7
    1e18:	fd2c10e3          	bne	s8,s2,1dd8 <llama_main+0x1460>
    1e1c:	00012a03          	lw	s4,0(sp)
    1e20:	000b0913          	mv	s2,s6
    1e24:	dfdff06f          	j	1c20 <llama_main+0x12a8>
    1e28:	03812d03          	lw	s10,56(sp)
    1e2c:	000d0493          	mv	s1,s10
    1e30:	000c0a93          	mv	s5,s8
    1e34:	00000413          	li	s0,0
    1e38:	0004a583          	lw	a1,0(s1)
    1e3c:	000aa503          	lw	a0,0(s5)
    1e40:	00448493          	addi	s1,s1,4
    1e44:	004a8a93          	addi	s5,s5,4
    1e48:	3e1030ef          	jal	5a28 <__mulsf3>
    1e4c:	00050593          	mv	a1,a0
    1e50:	00040513          	mv	a0,s0
    1e54:	2e0030ef          	jal	5134 <__addsf3>
    1e58:	00050413          	mv	s0,a0
    1e5c:	fd349ee3          	bne	s1,s3,1e38 <llama_main+0x14c0>
    1e60:	00ab2023          	sw	a0,0(s6)
    1e64:	004b0b13          	addi	s6,s6,4
    1e68:	017c0c33          	add	s8,s8,s7
    1e6c:	fd6a10e3          	bne	s4,s6,1e2c <llama_main+0x14b4>
    1e70:	d85ff06f          	j	1bf4 <llama_main+0x127c>
    1e74:	01412023          	sw	s4,0(sp)
    1e78:	03812a03          	lw	s4,56(sp)
    1e7c:	000b0793          	mv	a5,s6
    1e80:	000a8b13          	mv	s6,s5
    1e84:	00078a93          	mv	s5,a5
    1e88:	000a0493          	mv	s1,s4
    1e8c:	000a8913          	mv	s2,s5
    1e90:	00000413          	li	s0,0
    1e94:	0004a583          	lw	a1,0(s1)
    1e98:	00092503          	lw	a0,0(s2)
    1e9c:	00448493          	addi	s1,s1,4
    1ea0:	00490913          	addi	s2,s2,4
    1ea4:	385030ef          	jal	5a28 <__mulsf3>
    1ea8:	00050593          	mv	a1,a0
    1eac:	00040513          	mv	a0,s0
    1eb0:	284030ef          	jal	5134 <__addsf3>
    1eb4:	00050413          	mv	s0,a0
    1eb8:	fd349ee3          	bne	s1,s3,1e94 <llama_main+0x151c>
    1ebc:	00ab2023          	sw	a0,0(s6)
    1ec0:	004b0b13          	addi	s6,s6,4
    1ec4:	017a8ab3          	add	s5,s5,s7
    1ec8:	fdab10e3          	bne	s6,s10,1e88 <llama_main+0x1510>
    1ecc:	00012a03          	lw	s4,0(sp)
    1ed0:	8a5ff06f          	j	1774 <llama_main+0xdfc>
    1ed4:	01412023          	sw	s4,0(sp)
    1ed8:	03812a03          	lw	s4,56(sp)
    1edc:	000a8793          	mv	a5,s5
    1ee0:	00912223          	sw	s1,4(sp)
    1ee4:	000b0a93          	mv	s5,s6
    1ee8:	00078b13          	mv	s6,a5
    1eec:	000a0913          	mv	s2,s4
    1ef0:	000a8493          	mv	s1,s5
    1ef4:	00000413          	li	s0,0
    1ef8:	00092583          	lw	a1,0(s2)
    1efc:	0004a503          	lw	a0,0(s1)
    1f00:	00490913          	addi	s2,s2,4
    1f04:	00448493          	addi	s1,s1,4
    1f08:	321030ef          	jal	5a28 <__mulsf3>
    1f0c:	00050593          	mv	a1,a0
    1f10:	00040513          	mv	a0,s0
    1f14:	220030ef          	jal	5134 <__addsf3>
    1f18:	00050413          	mv	s0,a0
    1f1c:	fd391ee3          	bne	s2,s3,1ef8 <llama_main+0x1580>
    1f20:	00ab2023          	sw	a0,0(s6)
    1f24:	004b0b13          	addi	s6,s6,4
    1f28:	017a8ab3          	add	s5,s5,s7
    1f2c:	fdab10e3          	bne	s6,s10,1eec <llama_main+0x1574>
    1f30:	00012a03          	lw	s4,0(sp)
    1f34:	00412483          	lw	s1,4(sp)
    1f38:	805ff06f          	j	173c <llama_main+0xdc4>
    1f3c:	09812783          	lw	a5,152(sp)
    1f40:	00279493          	slli	s1,a5,0x2
    1f44:	fdb04263          	bgtz	s11,1708 <llama_main+0xd90>
    1f48:	02412783          	lw	a5,36(sp)
    1f4c:	a0f042e3          	bgtz	a5,1950 <llama_main+0xfd8>
    1f50:	02c12683          	lw	a3,44(sp)
    1f54:	09412603          	lw	a2,148(sp)
    1f58:	04c12583          	lw	a1,76(sp)
    1f5c:	03812503          	lw	a0,56(sp)
    1f60:	fd8fe0ef          	jal	738 <rmsnorm>
    1f64:	09012783          	lw	a5,144(sp)
    1f68:	00279913          	slli	s2,a5,0x2
    1f6c:	06c12783          	lw	a5,108(sp)
    1f70:	c4f04ee3          	bgtz	a5,1bcc <llama_main+0x1254>
    1f74:	d65ff06f          	j	1cd8 <llama_main+0x1360>
    1f78:	00e79863          	bne	a5,a4,1f88 <llama_main+0x1610>
    1f7c:	08c12783          	lw	a5,140(sp)
    1f80:	0a812703          	lw	a4,168(sp)
    1f84:	ecf76c63          	bltu	a4,a5,165c <llama_main+0xce4>
    1f88:	04c12583          	lw	a1,76(sp)
    1f8c:	000a0993          	mv	s3,s4
    1f90:	02c12683          	lw	a3,44(sp)
    1f94:	13012a03          	lw	s4,304(sp)
    1f98:	0e812603          	lw	a2,232(sp)
    1f9c:	12c12483          	lw	s1,300(sp)
    1fa0:	00058513          	mv	a0,a1
    1fa4:	12012b03          	lw	s6,288(sp)
    1fa8:	12412c03          	lw	s8,292(sp)
    1fac:	000c8d13          	mv	s10,s9
    1fb0:	12812c83          	lw	s9,296(sp)
    1fb4:	f84fe0ef          	jal	738 <rmsnorm>
    1fb8:	01412223          	sw	s4,4(sp)
    1fbc:	00098a13          	mv	s4,s3
    1fc0:	09c12983          	lw	s3,156(sp)
    1fc4:	00000a93          	li	s5,0
    1fc8:	00000b93          	li	s7,0
    1fcc:	00912023          	sw	s1,0(sp)
    1fd0:	076ad463          	bge	s5,s6,2038 <llama_main+0x16c0>
    1fd4:	02c12783          	lw	a5,44(sp)
    1fd8:	00000413          	li	s0,0
    1fdc:	04f05063          	blez	a5,201c <llama_main+0x16a4>
    1fe0:	0b412703          	lw	a4,180(sp)
    1fe4:	04c12903          	lw	s2,76(sp)
    1fe8:	002b9793          	slli	a5,s7,0x2
    1fec:	00f704b3          	add	s1,a4,a5
    1ff0:	00000413          	li	s0,0
    1ff4:	00092583          	lw	a1,0(s2)
    1ff8:	0004a503          	lw	a0,0(s1)
    1ffc:	00490913          	addi	s2,s2,4
    2000:	00448493          	addi	s1,s1,4
    2004:	225030ef          	jal	5a28 <__mulsf3>
    2008:	00050593          	mv	a1,a0
    200c:	00040513          	mv	a0,s0
    2010:	124030ef          	jal	5134 <__addsf3>
    2014:	00050413          	mv	s0,a0
    2018:	fd299ee3          	bne	s3,s2,1ff4 <llama_main+0x167c>
    201c:	02c12703          	lw	a4,44(sp)
    2020:	002a9793          	slli	a5,s5,0x2
    2024:	00fc07b3          	add	a5,s8,a5
    2028:	00eb8bb3          	add	s7,s7,a4
    202c:	0087a023          	sw	s0,0(a5)
    2030:	001a8a93          	addi	s5,s5,1
    2034:	f9dff06f          	j	1fd0 <llama_main+0x1658>
    2038:	000a0993          	mv	s3,s4
    203c:	03012783          	lw	a5,48(sp)
    2040:	00412a03          	lw	s4,4(sp)
    2044:	00012483          	lw	s1,0(sp)
    2048:	1947d063          	bge	a5,s4,21c8 <llama_main+0x1850>
    204c:	05812783          	lw	a5,88(sp)
    2050:	009787b3          	add	a5,a5,s1
    2054:	0007a403          	lw	s0,0(a5)
    2058:	00100913          	li	s2,1
    205c:	15240663          	beq	s0,s2,21a8 <llama_main+0x1830>
    2060:	14c12783          	lw	a5,332(sp)
    2064:	00241713          	slli	a4,s0,0x2
    2068:	00e787b3          	add	a5,a5,a4
    206c:	0007a483          	lw	s1,0(a5)
    2070:	08012783          	lw	a5,128(sp)
    2074:	07278c63          	beq	a5,s2,20ec <llama_main+0x1774>
    2078:	06012603          	lw	a2,96(sp)
    207c:	000077b7          	lui	a5,0x7
    2080:	9d478593          	addi	a1,a5,-1580 # 69d4 <__clzsi2+0x5e4>
    2084:	00048513          	mv	a0,s1
    2088:	19d010ef          	jal	3a24 <sscanf>
    208c:	09250663          	beq	a0,s2,2118 <llama_main+0x17a0>
    2090:	02048863          	beqz	s1,20c0 <llama_main+0x1748>
    2094:	0004c903          	lbu	s2,0(s1)
    2098:	02090463          	beqz	s2,20c0 <llama_main+0x1748>
    209c:	0014c783          	lbu	a5,1(s1)
    20a0:	00079863          	bnez	a5,20b0 <llama_main+0x1738>
    20a4:	00090513          	mv	a0,s2
    20a8:	63c000ef          	jal	26e4 <isprint>
    20ac:	34050c63          	beqz	a0,2404 <llama_main+0x1a8c>
    20b0:	000077b7          	lui	a5,0x7
    20b4:	00048593          	mv	a1,s1
    20b8:	9e078513          	addi	a0,a5,-1568 # 69e0 <__clzsi2+0x5f0>
    20bc:	a8cfe0ef          	jal	348 <term_printf>
    20c0:	08812783          	lw	a5,136(sp)
    20c4:	06078463          	beqz	a5,212c <llama_main+0x17b4>
    20c8:	02812783          	lw	a5,40(sp)
    20cc:	01bc8cb3          	add	s9,s9,s11
    20d0:	00178793          	addi	a5,a5,1
    20d4:	00078713          	mv	a4,a5
    20d8:	02f12423          	sw	a5,40(sp)
    20dc:	04100793          	li	a5,65
    20e0:	04f70e63          	beq	a4,a5,213c <llama_main+0x17c4>
    20e4:	08812023          	sw	s0,128(sp)
    20e8:	cd0ff06f          	j	15b8 <llama_main+0xc40>
    20ec:	0004c783          	lbu	a5,0(s1)
    20f0:	06012603          	lw	a2,96(sp)
    20f4:	00007737          	lui	a4,0x7
    20f8:	fe078793          	addi	a5,a5,-32
    20fc:	0017b793          	seqz	a5,a5
    2100:	00f484b3          	add	s1,s1,a5
    2104:	9d470593          	addi	a1,a4,-1580 # 69d4 <__clzsi2+0x5e4>
    2108:	00048513          	mv	a0,s1
    210c:	119010ef          	jal	3a24 <sscanf>
    2110:	08012783          	lw	a5,128(sp)
    2114:	f8f510e3          	bne	a0,a5,2094 <llama_main+0x171c>
    2118:	14414483          	lbu	s1,324(sp)
    211c:	16010793          	addi	a5,sp,352
    2120:	00149493          	slli	s1,s1,0x1
    2124:	009784b3          	add	s1,a5,s1
    2128:	f6dff06f          	j	2094 <llama_main+0x171c>
    212c:	00000513          	li	a0,0
    2130:	24d000ef          	jal	2b7c <time>
    2134:	08a12423          	sw	a0,136(sp)
    2138:	f91ff06f          	j	20c8 <llama_main+0x1750>
    213c:	07012783          	lw	a5,112(sp)
    2140:	47c78513          	addi	a0,a5,1148
    2144:	a04fe0ef          	jal	348 <term_printf>
    2148:	03f00793          	li	a5,63
    214c:	02f12823          	sw	a5,48(sp)
    2150:	00000513          	li	a0,0
    2154:	229000ef          	jal	2b7c <time>
    2158:	08812703          	lw	a4,136(sp)
    215c:	02a74863          	blt	a4,a0,218c <llama_main+0x1814>
    2160:	05812503          	lw	a0,88(sp)
    2164:	37c000ef          	jal	24e0 <free>
    2168:	00007537          	lui	a0,0x7
    216c:	9f850513          	addi	a0,a0,-1544 # 69f8 <__clzsi2+0x608>
    2170:	9d8fe0ef          	jal	348 <term_printf>
    2174:	0bc12503          	lw	a0,188(sp)
    2178:	368000ef          	jal	24e0 <free>
    217c:	00007537          	lui	a0,0x7
    2180:	a0c50513          	addi	a0,a0,-1524 # 6a0c <__clzsi2+0x61c>
    2184:	9c4fe0ef          	jal	348 <term_printf>
    2188:	0000006f          	j	2188 <llama_main+0x1810>
    218c:	40e507b3          	sub	a5,a0,a4
    2190:	03012703          	lw	a4,48(sp)
    2194:	00007537          	lui	a0,0x7
    2198:	9e450513          	addi	a0,a0,-1564 # 69e4 <__clzsi2+0x5f4>
    219c:	02f745b3          	div	a1,a4,a5
    21a0:	9a8fe0ef          	jal	348 <term_printf>
    21a4:	fbdff06f          	j	2160 <llama_main+0x17e8>
    21a8:	07012783          	lw	a5,112(sp)
    21ac:	02812883          	lw	a7,40(sp)
    21b0:	47c78513          	addi	a0,a5,1148
    21b4:	01112023          	sw	a7,0(sp)
    21b8:	990fe0ef          	jal	348 <term_printf>
    21bc:	00012883          	lw	a7,0(sp)
    21c0:	fa8880e3          	beq	a7,s0,2160 <llama_main+0x17e8>
    21c4:	f8dff06f          	j	2150 <llama_main+0x17d8>
    21c8:	000c2903          	lw	s2,0(s8)
    21cc:	00000413          	li	s0,0
    21d0:	00100493          	li	s1,1
    21d4:	0100006f          	j	21e4 <llama_main+0x186c>
    21d8:	00090a93          	mv	s5,s2
    21dc:	00148493          	addi	s1,s1,1
    21e0:	000a8913          	mv	s2,s5
    21e4:	00249793          	slli	a5,s1,0x2
    21e8:	00fc07b3          	add	a5,s8,a5
    21ec:	00090593          	mv	a1,s2
    21f0:	e764d4e3          	bge	s1,s6,2058 <llama_main+0x16e0>
    21f4:	0007aa83          	lw	s5,0(a5)
    21f8:	000a8513          	mv	a0,s5
    21fc:	6ec030ef          	jal	58e8 <__gesf2>
    2200:	fca05ce3          	blez	a0,21d8 <llama_main+0x1860>
    2204:	00048413          	mv	s0,s1
    2208:	fd5ff06f          	j	21dc <llama_main+0x1864>
    220c:	14412783          	lw	a5,324(sp)
    2210:	00190913          	addi	s2,s2,1
    2214:	00878793          	addi	a5,a5,8
    2218:	00fb8bb3          	add	s7,s7,a5
    221c:	d45fe06f          	j	f60 <llama_main+0x5e8>
    2220:	00090593          	mv	a1,s2
    2224:	8f0c0513          	addi	a0,s8,-1808
    2228:	920fe0ef          	jal	348 <term_printf>
    222c:	d4dfe06f          	j	f78 <llama_main+0x600>
    2230:	01612823          	sw	s6,16(sp)
    2234:	00007537          	lui	a0,0x7
    2238:	00090b13          	mv	s6,s2
    223c:	000b0613          	mv	a2,s6
    2240:	8f450513          	addi	a0,a0,-1804 # 68f4 <__clzsi2+0x504>
    2244:	00812903          	lw	s2,8(sp)
    2248:	900fe0ef          	jal	348 <term_printf>
    224c:	000067b7          	lui	a5,0x6
    2250:	01012883          	lw	a7,16(sp)
    2254:	37c12b83          	lw	s7,892(sp)
    2258:	37812c03          	lw	s8,888(sp)
    225c:	06f12823          	sw	a5,112(sp)
    2260:	f15fe06f          	j	1174 <llama_main+0x7fc>
    2264:	000b0893          	mv	a7,s6
    2268:	00090b13          	mv	s6,s2
    226c:	00812903          	lw	s2,8(sp)
    2270:	00007537          	lui	a0,0x7
    2274:	000b0613          	mv	a2,s6
    2278:	00030593          	mv	a1,t1
    227c:	91450513          	addi	a0,a0,-1772 # 6914 <__clzsi2+0x524>
    2280:	01112423          	sw	a7,8(sp)
    2284:	8c4fe0ef          	jal	348 <term_printf>
    2288:	000067b7          	lui	a5,0x6
    228c:	00812883          	lw	a7,8(sp)
    2290:	37c12b83          	lw	s7,892(sp)
    2294:	37812c03          	lw	s8,888(sp)
    2298:	06f12823          	sw	a5,112(sp)
    229c:	ed9fe06f          	j	1174 <llama_main+0x7fc>
    22a0:	000b0893          	mv	a7,s6
    22a4:	0007a023          	sw	zero,0(a5) # 6000 <__subsf3+0x2bc>
    22a8:	00090b13          	mv	s6,s2
    22ac:	00812903          	lw	s2,8(sp)
    22b0:	fc1ff06f          	j	2270 <llama_main+0x18f8>
    22b4:	00007537          	lui	a0,0x7
    22b8:	94050513          	addi	a0,a0,-1728 # 6940 <__clzsi2+0x550>
    22bc:	00812903          	lw	s2,8(sp)
    22c0:	01612423          	sw	s6,8(sp)
    22c4:	884fe0ef          	jal	348 <term_printf>
    22c8:	00412703          	lw	a4,4(sp)
    22cc:	19500793          	li	a5,405
    22d0:	00812883          	lw	a7,8(sp)
    22d4:	04e7c263          	blt	a5,a4,2318 <llama_main+0x19a0>
    22d8:	000067b7          	lui	a5,0x6
    22dc:	37c12b83          	lw	s7,892(sp)
    22e0:	37812c03          	lw	s8,888(sp)
    22e4:	06f12823          	sw	a5,112(sp)
    22e8:	e8dfe06f          	j	1174 <llama_main+0x7fc>
    22ec:	00000713          	li	a4,0
    22f0:	00eb06b3          	add	a3,s6,a4
    22f4:	0006c683          	lbu	a3,0(a3)
    22f8:	00170713          	addi	a4,a4,1
    22fc:	00478793          	addi	a5,a5,4 # 6004 <__subsf3+0x2c0>
    2300:	00368693          	addi	a3,a3,3
    2304:	fed7ae23          	sw	a3,-4(a5)
    2308:	fe8714e3          	bne	a4,s0,22f0 <llama_main+0x1978>
    230c:	01540ab3          	add	s5,s0,s5
    2310:	00000413          	li	s0,0
    2314:	fd9fe06f          	j	12ec <llama_main+0x974>
    2318:	00007537          	lui	a0,0x7
    231c:	94850513          	addi	a0,a0,-1720 # 6948 <__clzsi2+0x558>
    2320:	01112423          	sw	a7,8(sp)
    2324:	824fe0ef          	jal	348 <term_printf>
    2328:	14c12783          	lw	a5,332(sp)
    232c:	00812883          	lw	a7,8(sp)
    2330:	00000413          	li	s0,0
    2334:	6547a983          	lw	s3,1620(a5)
    2338:	00007a37          	lui	s4,0x7
    233c:	00a00493          	li	s1,10
    2340:	00088a93          	mv	s5,a7
    2344:	00c0006f          	j	2350 <llama_main+0x19d8>
    2348:	800fe0ef          	jal	348 <term_printf>
    234c:	00140413          	addi	s0,s0,1
    2350:	008987b3          	add	a5,s3,s0
    2354:	0007c583          	lbu	a1,0(a5)
    2358:	954a0513          	addi	a0,s4,-1708 # 6954 <__clzsi2+0x564>
    235c:	00058463          	beqz	a1,2364 <llama_main+0x19ec>
    2360:	fe9414e3          	bne	s0,s1,2348 <llama_main+0x19d0>
    2364:	000067b7          	lui	a5,0x6
    2368:	47c78513          	addi	a0,a5,1148 # 647c <__clzsi2+0x8c>
    236c:	01512423          	sw	s5,8(sp)
    2370:	06f12823          	sw	a5,112(sp)
    2374:	fd5fd0ef          	jal	348 <term_printf>
    2378:	00812883          	lw	a7,8(sp)
    237c:	37c12b83          	lw	s7,892(sp)
    2380:	37812c03          	lw	s8,888(sp)
    2384:	df1fe06f          	j	1174 <llama_main+0x7fc>
    2388:	fff00713          	li	a4,-1
    238c:	ec5fe06f          	j	1250 <llama_main+0x8d8>
    2390:	15812503          	lw	a0,344(sp)
    2394:	01112423          	sw	a7,8(sp)
    2398:	00351513          	slli	a0,a0,0x3
    239c:	0ac000ef          	jal	2448 <malloc>
    23a0:	15812583          	lw	a1,344(sp)
    23a4:	14c12603          	lw	a2,332(sp)
    23a8:	00812883          	lw	a7,8(sp)
    23ac:	14a12a23          	sw	a0,340(sp)
    23b0:	00050713          	mv	a4,a0
    23b4:	00000793          	li	a5,0
    23b8:	0180006f          	j	23d0 <llama_main+0x1a58>
    23bc:	0006a683          	lw	a3,0(a3)
    23c0:	00870713          	addi	a4,a4,8
    23c4:	fef72e23          	sw	a5,-4(a4)
    23c8:	fed72c23          	sw	a3,-8(a4)
    23cc:	00178793          	addi	a5,a5,1
    23d0:	00279693          	slli	a3,a5,0x2
    23d4:	00d606b3          	add	a3,a2,a3
    23d8:	feb7c2e3          	blt	a5,a1,23bc <llama_main+0x1a44>
    23dc:	72c00693          	li	a3,1836
    23e0:	00800613          	li	a2,8
    23e4:	01112423          	sw	a7,8(sp)
    23e8:	340000ef          	jal	2728 <qsort>
    23ec:	00812883          	lw	a7,8(sp)
    23f0:	dfdfe06f          	j	11ec <llama_main+0x874>
    23f4:	00007537          	lui	a0,0x7
    23f8:	9a850513          	addi	a0,a0,-1624 # 69a8 <__clzsi2+0x5b8>
    23fc:	f4dfd0ef          	jal	348 <term_printf>
    2400:	0000006f          	j	2400 <llama_main+0x1a88>
    2404:	00090513          	mv	a0,s2
    2408:	2e8000ef          	jal	26f0 <isspace>
    240c:	ca0512e3          	bnez	a0,20b0 <llama_main+0x1738>
    2410:	cb1ff06f          	j	20c0 <llama_main+0x1748>

00002414 <heap_init>:
    2414:	00750793          	addi	a5,a0,7
    2418:	ff87f793          	andi	a5,a5,-8
    241c:	00b50533          	add	a0,a0,a1
    2420:	40f50533          	sub	a0,a0,a5
    2424:	ff857513          	andi	a0,a0,-8
    2428:	00a78633          	add	a2,a5,a0
    242c:	0000b6b7          	lui	a3,0xb
    2430:	0000b737          	lui	a4,0xb
    2434:	00a7a023          	sw	a0,0(a5)
    2438:	0007a223          	sw	zero,4(a5)
    243c:	d8c6a823          	sw	a2,-624(a3) # ad90 <heap_end>
    2440:	d8f72a23          	sw	a5,-620(a4) # ad94 <heap_start>
    2444:	00008067          	ret

00002448 <malloc>:
    2448:	00050613          	mv	a2,a0
    244c:	04050663          	beqz	a0,2498 <malloc+0x50>
    2450:	0000b7b7          	lui	a5,0xb
    2454:	d947a503          	lw	a0,-620(a5) # ad94 <heap_start>
    2458:	04050263          	beqz	a0,249c <malloc+0x54>
    245c:	00860613          	addi	a2,a2,8
    2460:	01000793          	li	a5,16
    2464:	02f66e63          	bltu	a2,a5,24a0 <malloc+0x58>
    2468:	0000b7b7          	lui	a5,0xb
    246c:	d907a583          	lw	a1,-624(a5) # ad90 <heap_end>
    2470:	00760613          	addi	a2,a2,7
    2474:	ff867613          	andi	a2,a2,-8
    2478:	02b57063          	bgeu	a0,a1,2498 <malloc+0x50>
    247c:	00052783          	lw	a5,0(a0)
    2480:	0017f693          	andi	a3,a5,1
    2484:	ffc7f713          	andi	a4,a5,-4
    2488:	00069463          	bnez	a3,2490 <malloc+0x48>
    248c:	00c77e63          	bgeu	a4,a2,24a8 <malloc+0x60>
    2490:	00e50533          	add	a0,a0,a4
    2494:	feb564e3          	bltu	a0,a1,247c <malloc+0x34>
    2498:	00000513          	li	a0,0
    249c:	00008067          	ret
    24a0:	00078613          	mv	a2,a5
    24a4:	fc5ff06f          	j	2468 <malloc+0x20>
    24a8:	01060693          	addi	a3,a2,16
    24ac:	0017e793          	ori	a5,a5,1
    24b0:	02d76263          	bltu	a4,a3,24d4 <malloc+0x8c>
    24b4:	00c507b3          	add	a5,a0,a2
    24b8:	40c706b3          	sub	a3,a4,a2
    24bc:	00c7a223          	sw	a2,4(a5)
    24c0:	00d7a023          	sw	a3,0(a5)
    24c4:	00e50733          	add	a4,a0,a4
    24c8:	00b77463          	bgeu	a4,a1,24d0 <malloc+0x88>
    24cc:	00d72223          	sw	a3,4(a4)
    24d0:	00166793          	ori	a5,a2,1
    24d4:	00f52023          	sw	a5,0(a0)
    24d8:	00850513          	addi	a0,a0,8
    24dc:	00008067          	ret

000024e0 <free>:
    24e0:	08050c63          	beqz	a0,2578 <free+0x98>
    24e4:	0000b7b7          	lui	a5,0xb
    24e8:	d947a703          	lw	a4,-620(a5) # ad94 <heap_start>
    24ec:	08070663          	beqz	a4,2578 <free+0x98>
    24f0:	ff850793          	addi	a5,a0,-8
    24f4:	08e7e263          	bltu	a5,a4,2578 <free+0x98>
    24f8:	0000b6b7          	lui	a3,0xb
    24fc:	d906a603          	lw	a2,-624(a3) # ad90 <heap_end>
    2500:	06c7fc63          	bgeu	a5,a2,2578 <free+0x98>
    2504:	ff852683          	lw	a3,-8(a0)
    2508:	ffe6f593          	andi	a1,a3,-2
    250c:	ffc6f693          	andi	a3,a3,-4
    2510:	feb52c23          	sw	a1,-8(a0)
    2514:	00d78833          	add	a6,a5,a3
    2518:	02c87663          	bgeu	a6,a2,2544 <free+0x64>
    251c:	00082803          	lw	a6,0(a6)
    2520:	00187893          	andi	a7,a6,1
    2524:	02089063          	bnez	a7,2544 <free+0x64>
    2528:	ffc87813          	andi	a6,a6,-4
    252c:	010585b3          	add	a1,a1,a6
    2530:	010686b3          	add	a3,a3,a6
    2534:	feb52c23          	sw	a1,-8(a0)
    2538:	00d785b3          	add	a1,a5,a3
    253c:	00c5f463          	bgeu	a1,a2,2544 <free+0x64>
    2540:	00d5a223          	sw	a3,4(a1)
    2544:	ffc52583          	lw	a1,-4(a0)
    2548:	02058863          	beqz	a1,2578 <free+0x98>
    254c:	40b787b3          	sub	a5,a5,a1
    2550:	02e7e463          	bltu	a5,a4,2578 <free+0x98>
    2554:	0007a703          	lw	a4,0(a5)
    2558:	00177593          	andi	a1,a4,1
    255c:	00059e63          	bnez	a1,2578 <free+0x98>
    2560:	ffc77713          	andi	a4,a4,-4
    2564:	00d70733          	add	a4,a4,a3
    2568:	00e7a023          	sw	a4,0(a5)
    256c:	00e787b3          	add	a5,a5,a4
    2570:	00c7f463          	bgeu	a5,a2,2578 <free+0x98>
    2574:	00e7a223          	sw	a4,4(a5)
    2578:	00008067          	ret

0000257c <memcpy>:
    257c:	00b567b3          	or	a5,a0,a1
    2580:	0037f713          	andi	a4,a5,3
    2584:	00058813          	mv	a6,a1
    2588:	00050793          	mv	a5,a0
    258c:	02070263          	beqz	a4,25b0 <memcpy+0x34>
    2590:	00060e63          	beqz	a2,25ac <memcpy+0x30>
    2594:	00c78633          	add	a2,a5,a2
    2598:	0005c703          	lbu	a4,0(a1)
    259c:	00178793          	addi	a5,a5,1
    25a0:	00158593          	addi	a1,a1,1
    25a4:	fee78fa3          	sb	a4,-1(a5)
    25a8:	fec798e3          	bne	a5,a2,2598 <memcpy+0x1c>
    25ac:	00008067          	ret
    25b0:	00300713          	li	a4,3
    25b4:	fcc77ee3          	bgeu	a4,a2,2590 <memcpy+0x14>
    25b8:	ffc60893          	addi	a7,a2,-4
    25bc:	ffc8f693          	andi	a3,a7,-4
    25c0:	00468693          	addi	a3,a3,4
    25c4:	00d506b3          	add	a3,a0,a3
    25c8:	0005a703          	lw	a4,0(a1)
    25cc:	00478793          	addi	a5,a5,4
    25d0:	00458593          	addi	a1,a1,4
    25d4:	fee7ae23          	sw	a4,-4(a5)
    25d8:	fed798e3          	bne	a5,a3,25c8 <memcpy+0x4c>
    25dc:	ffc8f713          	andi	a4,a7,-4
    25e0:	00480813          	addi	a6,a6,4
    25e4:	00e507b3          	add	a5,a0,a4
    25e8:	00e805b3          	add	a1,a6,a4
    25ec:	00478793          	addi	a5,a5,4
    25f0:	00367613          	andi	a2,a2,3
    25f4:	f9dff06f          	j	2590 <memcpy+0x14>

000025f8 <memset>:
    25f8:	00357793          	andi	a5,a0,3
    25fc:	0ff5f693          	zext.b	a3,a1
    2600:	04079e63          	bnez	a5,265c <memset+0x64>
    2604:	0ff5f793          	zext.b	a5,a1
    2608:	00879593          	slli	a1,a5,0x8
    260c:	00f585b3          	add	a1,a1,a5
    2610:	01059713          	slli	a4,a1,0x10
    2614:	00300793          	li	a5,3
    2618:	00e585b3          	add	a1,a1,a4
    261c:	04c7f063          	bgeu	a5,a2,265c <memset+0x64>
    2620:	ffc60793          	addi	a5,a2,-4
    2624:	ffc7f813          	andi	a6,a5,-4
    2628:	00480813          	addi	a6,a6,4
    262c:	01050833          	add	a6,a0,a6
    2630:	00050713          	mv	a4,a0
    2634:	00470713          	addi	a4,a4,4
    2638:	feb72e23          	sw	a1,-4(a4)
    263c:	ff071ce3          	bne	a4,a6,2634 <memset+0x3c>
    2640:	ffc7f793          	andi	a5,a5,-4
    2644:	00f507b3          	add	a5,a0,a5
    2648:	00478793          	addi	a5,a5,4
    264c:	00367613          	andi	a2,a2,3
    2650:	00c78733          	add	a4,a5,a2
    2654:	00061a63          	bnez	a2,2668 <memset+0x70>
    2658:	00008067          	ret
    265c:	00050793          	mv	a5,a0
    2660:	00c78733          	add	a4,a5,a2
    2664:	fe060ae3          	beqz	a2,2658 <memset+0x60>
    2668:	00178793          	addi	a5,a5,1
    266c:	fed78fa3          	sb	a3,-1(a5)
    2670:	fee79ce3          	bne	a5,a4,2668 <memset+0x70>
    2674:	00008067          	ret

00002678 <strlen>:
    2678:	00054783          	lbu	a5,0(a0)
    267c:	00078e63          	beqz	a5,2698 <strlen+0x20>
    2680:	00050793          	mv	a5,a0
    2684:	0017c703          	lbu	a4,1(a5)
    2688:	00178793          	addi	a5,a5,1
    268c:	fe071ce3          	bnez	a4,2684 <strlen+0xc>
    2690:	40a78533          	sub	a0,a5,a0
    2694:	00008067          	ret
    2698:	00000513          	li	a0,0
    269c:	00008067          	ret

000026a0 <strcmp>:
    26a0:	00054783          	lbu	a5,0(a0)
    26a4:	00079a63          	bnez	a5,26b8 <strcmp+0x18>
    26a8:	0340006f          	j	26dc <strcmp+0x3c>
    26ac:	00054783          	lbu	a5,0(a0)
    26b0:	02078063          	beqz	a5,26d0 <strcmp+0x30>
    26b4:	00068593          	mv	a1,a3
    26b8:	0005c703          	lbu	a4,0(a1)
    26bc:	00150513          	addi	a0,a0,1
    26c0:	00158693          	addi	a3,a1,1
    26c4:	fef704e3          	beq	a4,a5,26ac <strcmp+0xc>
    26c8:	40e78533          	sub	a0,a5,a4
    26cc:	00008067          	ret
    26d0:	0015c703          	lbu	a4,1(a1)
    26d4:	40e78533          	sub	a0,a5,a4
    26d8:	00008067          	ret
    26dc:	0005c703          	lbu	a4,0(a1)
    26e0:	fe9ff06f          	j	26c8 <strcmp+0x28>

000026e4 <isprint>:
    26e4:	fe050513          	addi	a0,a0,-32
    26e8:	05f53513          	sltiu	a0,a0,95
    26ec:	00008067          	ret

000026f0 <isspace>:
    26f0:	02000793          	li	a5,32
    26f4:	00f50863          	beq	a0,a5,2704 <isspace+0x14>
    26f8:	ff750513          	addi	a0,a0,-9
    26fc:	00553513          	sltiu	a0,a0,5
    2700:	00008067          	ret
    2704:	00100513          	li	a0,1
    2708:	00008067          	ret

0000270c <isdigit>:
    270c:	fd050513          	addi	a0,a0,-48
    2710:	00a53513          	sltiu	a0,a0,10
    2714:	00008067          	ret

00002718 <abs>:
    2718:	41f55793          	srai	a5,a0,0x1f
    271c:	00a7c533          	xor	a0,a5,a0
    2720:	40f50533          	sub	a0,a0,a5
    2724:	00008067          	ret

00002728 <qsort>:
    2728:	ec010113          	addi	sp,sp,-320
    272c:	13412423          	sw	s4,296(sp)
    2730:	12112e23          	sw	ra,316(sp)
    2734:	00100a13          	li	s4,1
    2738:	20ba7663          	bgeu	s4,a1,2944 <qsort+0x21c>
    273c:	11a12823          	sw	s10,272(sp)
    2740:	00060d13          	mv	s10,a2
    2744:	20060a63          	beqz	a2,2958 <qsort+0x230>
    2748:	11712e23          	sw	s7,284(sp)
    274c:	00050b93          	mv	s7,a0
    2750:	20050263          	beqz	a0,2954 <qsort+0x22c>
    2754:	13312623          	sw	s3,300(sp)
    2758:	fff58993          	addi	s3,a1,-1
    275c:	12912a23          	sw	s1,308(sp)
    2760:	13212823          	sw	s2,304(sp)
    2764:	13512223          	sw	s5,292(sp)
    2768:	12812c23          	sw	s0,312(sp)
    276c:	13612023          	sw	s6,288(sp)
    2770:	11812c23          	sw	s8,280(sp)
    2774:	11912a23          	sw	s9,276(sp)
    2778:	11b12623          	sw	s11,268(sp)
    277c:	01312223          	sw	s3,4(sp)
    2780:	00012023          	sw	zero,0(sp)
    2784:	00000493          	li	s1,0
    2788:	00068913          	mv	s2,a3
    278c:	ffea0a93          	addi	s5,s4,-2
    2790:	1534fc63          	bgeu	s1,s3,28e8 <qsort+0x1c0>
    2794:	409987b3          	sub	a5,s3,s1
    2798:	00900713          	li	a4,9
    279c:	20f77663          	bgeu	a4,a5,29a8 <qsort+0x280>
    27a0:	0017d793          	srli	a5,a5,0x1
    27a4:	009787b3          	add	a5,a5,s1
    27a8:	03a787b3          	mul	a5,a5,s10
    27ac:	033d0db3          	mul	s11,s10,s3
    27b0:	00fb87b3          	add	a5,s7,a5
    27b4:	01a78533          	add	a0,a5,s10
    27b8:	01bb8db3          	add	s11,s7,s11
    27bc:	000d8713          	mv	a4,s11
    27c0:	00074583          	lbu	a1,0(a4)
    27c4:	0007c683          	lbu	a3,0(a5)
    27c8:	00170713          	addi	a4,a4,1
    27cc:	00178793          	addi	a5,a5,1
    27d0:	feb78fa3          	sb	a1,-1(a5)
    27d4:	fed70fa3          	sb	a3,-1(a4)
    27d8:	fea794e3          	bne	a5,a0,27c0 <qsort+0x98>
    27dc:	029d0733          	mul	a4,s10,s1
    27e0:	00048413          	mv	s0,s1
    27e4:	00048c93          	mv	s9,s1
    27e8:	00eb8c33          	add	s8,s7,a4
    27ec:	0100006f          	j	27fc <qsort+0xd4>
    27f0:	001c8c93          	addi	s9,s9,1
    27f4:	01ac0c33          	add	s8,s8,s10
    27f8:	053cf863          	bgeu	s9,s3,2848 <qsort+0x120>
    27fc:	000d8593          	mv	a1,s11
    2800:	000c0513          	mv	a0,s8
    2804:	000c0b13          	mv	s6,s8
    2808:	000900e7          	jalr	s2
    280c:	fe0552e3          	bgez	a0,27f0 <qsort+0xc8>
    2810:	028d07b3          	mul	a5,s10,s0
    2814:	00fb87b3          	add	a5,s7,a5
    2818:	01a78533          	add	a0,a5,s10
    281c:	000b4583          	lbu	a1,0(s6)
    2820:	0007c683          	lbu	a3,0(a5)
    2824:	001b0b13          	addi	s6,s6,1
    2828:	00178793          	addi	a5,a5,1
    282c:	feb78fa3          	sb	a1,-1(a5)
    2830:	fedb0fa3          	sb	a3,-1(s6)
    2834:	fef514e3          	bne	a0,a5,281c <qsort+0xf4>
    2838:	001c8c93          	addi	s9,s9,1
    283c:	00140413          	addi	s0,s0,1
    2840:	01ac0c33          	add	s8,s8,s10
    2844:	fb3cece3          	bltu	s9,s3,27fc <qsort+0xd4>
    2848:	028d07b3          	mul	a5,s10,s0
    284c:	00fb87b3          	add	a5,s7,a5
    2850:	01a785b3          	add	a1,a5,s10
    2854:	000dc683          	lbu	a3,0(s11)
    2858:	0007c703          	lbu	a4,0(a5)
    285c:	001d8d93          	addi	s11,s11,1
    2860:	00178793          	addi	a5,a5,1
    2864:	fed78fa3          	sb	a3,-1(a5)
    2868:	feed8fa3          	sb	a4,-1(s11)
    286c:	fef594e3          	bne	a1,a5,2854 <qsort+0x12c>
    2870:	fffa0713          	addi	a4,s4,-1
    2874:	0e040c63          	beqz	s0,296c <qsort+0x244>
    2878:	409406b3          	sub	a3,s0,s1
    287c:	fff98793          	addi	a5,s3,-1
    2880:	408787b3          	sub	a5,a5,s0
    2884:	fff68693          	addi	a3,a3,-1
    2888:	fff40593          	addi	a1,s0,-1
    288c:	00140413          	addi	s0,s0,1
    2890:	18d7f863          	bgeu	a5,a3,2a20 <qsort+0x2f8>
    2894:	002a1a93          	slli	s5,s4,0x2
    2898:	015106b3          	add	a3,sp,s5
    289c:	00b6a023          	sw	a1,0(a3)
    28a0:	00010793          	mv	a5,sp
    28a4:	03347463          	bgeu	s0,s3,28cc <qsort+0x1a4>
    28a8:	002a1693          	slli	a3,s4,0x2
    28ac:	002a0513          	addi	a0,s4,2
    28b0:	00d106b3          	add	a3,sp,a3
    28b4:	00251593          	slli	a1,a0,0x2
    28b8:	0086a223          	sw	s0,4(a3)
    28bc:	00b105b3          	add	a1,sp,a1
    28c0:	0135a023          	sw	s3,0(a1)
    28c4:	0046a483          	lw	s1,4(a3)
    28c8:	1b34e063          	bltu	s1,s3,2a68 <qsort+0x340>
    28cc:	00271713          	slli	a4,a4,0x2
    28d0:	00e78733          	add	a4,a5,a4
    28d4:	015787b3          	add	a5,a5,s5
    28d8:	00072483          	lw	s1,0(a4)
    28dc:	0007a983          	lw	s3,0(a5)
    28e0:	ffea0a93          	addi	s5,s4,-2
    28e4:	eb34e8e3          	bltu	s1,s3,2794 <qsort+0x6c>
    28e8:	fff00793          	li	a5,-1
    28ec:	000a8a13          	mv	s4,s5
    28f0:	02fa8463          	beq	s5,a5,2918 <qsort+0x1f0>
    28f4:	00fa8733          	add	a4,s5,a5
    28f8:	00271713          	slli	a4,a4,0x2
    28fc:	00010793          	mv	a5,sp
    2900:	002a9a93          	slli	s5,s5,0x2
    2904:	00e78733          	add	a4,a5,a4
    2908:	015787b3          	add	a5,a5,s5
    290c:	00072483          	lw	s1,0(a4)
    2910:	0007a983          	lw	s3,0(a5)
    2914:	fcdff06f          	j	28e0 <qsort+0x1b8>
    2918:	13812403          	lw	s0,312(sp)
    291c:	13412483          	lw	s1,308(sp)
    2920:	13012903          	lw	s2,304(sp)
    2924:	12c12983          	lw	s3,300(sp)
    2928:	12412a83          	lw	s5,292(sp)
    292c:	12012b03          	lw	s6,288(sp)
    2930:	11c12b83          	lw	s7,284(sp)
    2934:	11812c03          	lw	s8,280(sp)
    2938:	11412c83          	lw	s9,276(sp)
    293c:	11012d03          	lw	s10,272(sp)
    2940:	10c12d83          	lw	s11,268(sp)
    2944:	13c12083          	lw	ra,316(sp)
    2948:	12812a03          	lw	s4,296(sp)
    294c:	14010113          	addi	sp,sp,320
    2950:	00008067          	ret
    2954:	11c12b83          	lw	s7,284(sp)
    2958:	13c12083          	lw	ra,316(sp)
    295c:	11012d03          	lw	s10,272(sp)
    2960:	12812a03          	lw	s4,296(sp)
    2964:	14010113          	addi	sp,sp,320
    2968:	00008067          	ret
    296c:	00100613          	li	a2,1
    2970:	f6c98ce3          	beq	s3,a2,28e8 <qsort+0x1c0>
    2974:	00271693          	slli	a3,a4,0x2
    2978:	00d106b3          	add	a3,sp,a3
    297c:	002a1a93          	slli	s5,s4,0x2
    2980:	00c6a023          	sw	a2,0(a3)
    2984:	00010793          	mv	a5,sp
    2988:	015106b3          	add	a3,sp,s5
    298c:	00271713          	slli	a4,a4,0x2
    2990:	0136a023          	sw	s3,0(a3)
    2994:	00e78733          	add	a4,a5,a4
    2998:	015787b3          	add	a5,a5,s5
    299c:	00072483          	lw	s1,0(a4)
    29a0:	0007a983          	lw	s3,0(a5)
    29a4:	f3dff06f          	j	28e0 <qsort+0x1b8>
    29a8:	00148a13          	addi	s4,s1,1
    29ac:	f349eee3          	bltu	s3,s4,28e8 <qsort+0x1c0>
    29b0:	029d0833          	mul	a6,s10,s1
    29b4:	010b8833          	add	a6,s7,a6
    29b8:	01a80b33          	add	s6,a6,s10
    29bc:	00080c13          	mv	s8,a6
    29c0:	000b0d93          	mv	s11,s6
    29c4:	000a0c93          	mv	s9,s4
    29c8:	0544f463          	bgeu	s1,s4,2a10 <qsort+0x2e8>
    29cc:	000d8593          	mv	a1,s11
    29d0:	000c0513          	mv	a0,s8
    29d4:	fffc8c93          	addi	s9,s9,-1
    29d8:	000c0413          	mv	s0,s8
    29dc:	000900e7          	jalr	s2
    29e0:	02a05863          	blez	a0,2a10 <qsort+0x2e8>
    29e4:	000d8793          	mv	a5,s11
    29e8:	0007c683          	lbu	a3,0(a5)
    29ec:	00044703          	lbu	a4,0(s0)
    29f0:	00178793          	addi	a5,a5,1
    29f4:	00140413          	addi	s0,s0,1
    29f8:	fed40fa3          	sb	a3,-1(s0)
    29fc:	fee78fa3          	sb	a4,-1(a5)
    2a00:	ffb414e3          	bne	s0,s11,29e8 <qsort+0x2c0>
    2a04:	41ac0c33          	sub	s8,s8,s10
    2a08:	41ad8db3          	sub	s11,s11,s10
    2a0c:	fd94e0e3          	bltu	s1,s9,29cc <qsort+0x2a4>
    2a10:	001a0a13          	addi	s4,s4,1
    2a14:	000b0813          	mv	a6,s6
    2a18:	fb49f0e3          	bgeu	s3,s4,29b8 <qsort+0x290>
    2a1c:	ecdff06f          	j	28e8 <qsort+0x1c0>
    2a20:	00271693          	slli	a3,a4,0x2
    2a24:	00010793          	mv	a5,sp
    2a28:	00d106b3          	add	a3,sp,a3
    2a2c:	002a1a93          	slli	s5,s4,0x2
    2a30:	05347263          	bgeu	s0,s3,2a74 <qsort+0x34c>
    2a34:	0086a023          	sw	s0,0(a3)
    2a38:	01510533          	add	a0,sp,s5
    2a3c:	01352023          	sw	s3,0(a0)
    2a40:	002a1693          	slli	a3,s4,0x2
    2a44:	002a0513          	addi	a0,s4,2
    2a48:	00d106b3          	add	a3,sp,a3
    2a4c:	00251813          	slli	a6,a0,0x2
    2a50:	0096a223          	sw	s1,4(a3)
    2a54:	01010833          	add	a6,sp,a6
    2a58:	00b82023          	sw	a1,0(a6)
    2a5c:	0046a483          	lw	s1,4(a3)
    2a60:	00058993          	mv	s3,a1
    2a64:	e6b4f4e3          	bgeu	s1,a1,28cc <qsort+0x1a4>
    2a68:	000a0a93          	mv	s5,s4
    2a6c:	00050a13          	mv	s4,a0
    2a70:	d25ff06f          	j	2794 <qsort+0x6c>
    2a74:	0096a023          	sw	s1,0(a3)
    2a78:	00271713          	slli	a4,a4,0x2
    2a7c:	015106b3          	add	a3,sp,s5
    2a80:	00b6a023          	sw	a1,0(a3)
    2a84:	00e78733          	add	a4,a5,a4
    2a88:	015787b3          	add	a5,a5,s5
    2a8c:	00072483          	lw	s1,0(a4)
    2a90:	0007a983          	lw	s3,0(a5)
    2a94:	e4dff06f          	j	28e0 <qsort+0x1b8>

00002a98 <bsearch>:
    2a98:	fd010113          	addi	sp,sp,-48
    2a9c:	02112623          	sw	ra,44(sp)
    2aa0:	02912223          	sw	s1,36(sp)
    2aa4:	08060263          	beqz	a2,2b28 <bsearch+0x90>
    2aa8:	03212023          	sw	s2,32(sp)
    2aac:	01312e23          	sw	s3,28(sp)
    2ab0:	01412c23          	sw	s4,24(sp)
    2ab4:	01512a23          	sw	s5,20(sp)
    2ab8:	01612823          	sw	s6,16(sp)
    2abc:	01712623          	sw	s7,12(sp)
    2ac0:	02812423          	sw	s0,40(sp)
    2ac4:	00060b93          	mv	s7,a2
    2ac8:	00050993          	mv	s3,a0
    2acc:	00058a13          	mv	s4,a1
    2ad0:	00068a93          	mv	s5,a3
    2ad4:	00070b13          	mv	s6,a4
    2ad8:	00000913          	li	s2,0
    2adc:	412b8433          	sub	s0,s7,s2
    2ae0:	00145413          	srli	s0,s0,0x1
    2ae4:	01240433          	add	s0,s0,s2
    2ae8:	035404b3          	mul	s1,s0,s5
    2aec:	00098513          	mv	a0,s3
    2af0:	009a04b3          	add	s1,s4,s1
    2af4:	00048593          	mv	a1,s1
    2af8:	000b00e7          	jalr	s6
    2afc:	04050863          	beqz	a0,2b4c <bsearch+0xb4>
    2b00:	04054063          	bltz	a0,2b40 <bsearch+0xa8>
    2b04:	00140913          	addi	s2,s0,1
    2b08:	fd796ae3          	bltu	s2,s7,2adc <bsearch+0x44>
    2b0c:	02812403          	lw	s0,40(sp)
    2b10:	02012903          	lw	s2,32(sp)
    2b14:	01c12983          	lw	s3,28(sp)
    2b18:	01812a03          	lw	s4,24(sp)
    2b1c:	01412a83          	lw	s5,20(sp)
    2b20:	01012b03          	lw	s6,16(sp)
    2b24:	00c12b83          	lw	s7,12(sp)
    2b28:	02c12083          	lw	ra,44(sp)
    2b2c:	00000493          	li	s1,0
    2b30:	00048513          	mv	a0,s1
    2b34:	02412483          	lw	s1,36(sp)
    2b38:	03010113          	addi	sp,sp,48
    2b3c:	00008067          	ret
    2b40:	00040b93          	mv	s7,s0
    2b44:	f9796ce3          	bltu	s2,s7,2adc <bsearch+0x44>
    2b48:	fc5ff06f          	j	2b0c <bsearch+0x74>
    2b4c:	02812403          	lw	s0,40(sp)
    2b50:	02c12083          	lw	ra,44(sp)
    2b54:	02012903          	lw	s2,32(sp)
    2b58:	01c12983          	lw	s3,28(sp)
    2b5c:	01812a03          	lw	s4,24(sp)
    2b60:	01412a83          	lw	s5,20(sp)
    2b64:	01012b03          	lw	s6,16(sp)
    2b68:	00c12b83          	lw	s7,12(sp)
    2b6c:	00048513          	mv	a0,s1
    2b70:	02412483          	lw	s1,36(sp)
    2b74:	03010113          	addi	sp,sp,48
    2b78:	00008067          	ret

00002b7c <time>:
    2b7c:	400007b7          	lui	a5,0x40000
    2b80:	ff010113          	addi	sp,sp,-16
    2b84:	00078693          	mv	a3,a5
    2b88:	00812423          	sw	s0,8(sp)
    2b8c:	00112623          	sw	ra,12(sp)
    2b90:	00050413          	mv	s0,a0
    2b94:	00878793          	addi	a5,a5,8 # 40000008 <__heap_end+0x2c000008>
    2b98:	00468693          	addi	a3,a3,4
    2b9c:	0007a583          	lw	a1,0(a5)
    2ba0:	0006a503          	lw	a0,0(a3)
    2ba4:	0007a703          	lw	a4,0(a5)
    2ba8:	fee59ae3          	bne	a1,a4,2b9c <time+0x20>
    2bac:	00bb8637          	lui	a2,0xbb8
    2bb0:	00000693          	li	a3,0
    2bb4:	298010ef          	jal	3e4c <__udivdi3>
    2bb8:	00040463          	beqz	s0,2bc0 <time+0x44>
    2bbc:	00a42023          	sw	a0,0(s0)
    2bc0:	00c12083          	lw	ra,12(sp)
    2bc4:	00812403          	lw	s0,8(sp)
    2bc8:	01010113          	addi	sp,sp,16
    2bcc:	00008067          	ret

00002bd0 <expf.part.0>:
    2bd0:	fe010113          	addi	sp,sp,-32
    2bd4:	00112e23          	sw	ra,28(sp)
    2bd8:	00812c23          	sw	s0,24(sp)
    2bdc:	00912a23          	sw	s1,20(sp)
    2be0:	01212823          	sw	s2,16(sp)
    2be4:	01312623          	sw	s3,12(sp)
    2be8:	01412423          	sw	s4,8(sp)
    2bec:	01512223          	sw	s5,4(sp)
    2bf0:	00050413          	mv	s0,a0
    2bf4:	710030ef          	jal	6304 <__extendsfdf2>
    2bf8:	000077b7          	lui	a5,0x7
    2bfc:	d787a603          	lw	a2,-648(a5) # 6d78 <__text_end+0x98>
    2c00:	d7c7a683          	lw	a3,-644(a5)
    2c04:	5f5010ef          	jal	49f8 <__divdf3>
    2c08:	00050913          	mv	s2,a0
    2c0c:	00058493          	mv	s1,a1
    2c10:	00040513          	mv	a0,s0
    2c14:	00000593          	li	a1,0
    2c18:	4d1020ef          	jal	58e8 <__gesf2>
    2c1c:	1a054863          	bltz	a0,2dcc <expf.part.0+0x1fc>
    2c20:	000077b7          	lui	a5,0x7
    2c24:	d687a603          	lw	a2,-664(a5) # 6d68 <__text_end+0x88>
    2c28:	d6c7a683          	lw	a3,-660(a5)
    2c2c:	00090513          	mv	a0,s2
    2c30:	00048593          	mv	a1,s1
    2c34:	644010ef          	jal	4278 <__adddf3>
    2c38:	47c020ef          	jal	50b4 <__fixdfsi>
    2c3c:	00050493          	mv	s1,a0
    2c40:	5b4030ef          	jal	61f4 <__floatsisf>
    2c44:	000077b7          	lui	a5,0x7
    2c48:	cf07a583          	lw	a1,-784(a5) # 6cf0 <__text_end+0x10>
    2c4c:	5dd020ef          	jal	5a28 <__mulsf3>
    2c50:	00050593          	mv	a1,a0
    2c54:	00040513          	mv	a0,s0
    2c58:	0ec030ef          	jal	5d44 <__subsf3>
    2c5c:	000077b7          	lui	a5,0x7
    2c60:	ce47a583          	lw	a1,-796(a5) # 6ce4 <__text_end+0x4>
    2c64:	00050413          	mv	s0,a0
    2c68:	4cc020ef          	jal	5134 <__addsf3>
    2c6c:	000077b7          	lui	a5,0x7
    2c70:	cf47a583          	lw	a1,-780(a5) # 6cf4 <__text_end+0x14>
    2c74:	00050993          	mv	s3,a0
    2c78:	00040513          	mv	a0,s0
    2c7c:	5ad020ef          	jal	5a28 <__mulsf3>
    2c80:	00040593          	mv	a1,s0
    2c84:	5a5020ef          	jal	5a28 <__mulsf3>
    2c88:	00050913          	mv	s2,a0
    2c8c:	00090593          	mv	a1,s2
    2c90:	00098513          	mv	a0,s3
    2c94:	4a0020ef          	jal	5134 <__addsf3>
    2c98:	000077b7          	lui	a5,0x7
    2c9c:	cf87a583          	lw	a1,-776(a5) # 6cf8 <__text_end+0x18>
    2ca0:	00050993          	mv	s3,a0
    2ca4:	00040513          	mv	a0,s0
    2ca8:	0bd020ef          	jal	5564 <__divsf3>
    2cac:	00090593          	mv	a1,s2
    2cb0:	579020ef          	jal	5a28 <__mulsf3>
    2cb4:	00050913          	mv	s2,a0
    2cb8:	00090593          	mv	a1,s2
    2cbc:	00098513          	mv	a0,s3
    2cc0:	474020ef          	jal	5134 <__addsf3>
    2cc4:	000077b7          	lui	a5,0x7
    2cc8:	cfc7a583          	lw	a1,-772(a5) # 6cfc <__text_end+0x1c>
    2ccc:	00050993          	mv	s3,a0
    2cd0:	00040513          	mv	a0,s0
    2cd4:	555020ef          	jal	5a28 <__mulsf3>
    2cd8:	00090593          	mv	a1,s2
    2cdc:	54d020ef          	jal	5a28 <__mulsf3>
    2ce0:	00050913          	mv	s2,a0
    2ce4:	00090593          	mv	a1,s2
    2ce8:	00098513          	mv	a0,s3
    2cec:	448020ef          	jal	5134 <__addsf3>
    2cf0:	000077b7          	lui	a5,0x7
    2cf4:	d007a583          	lw	a1,-768(a5) # 6d00 <__text_end+0x20>
    2cf8:	00050993          	mv	s3,a0
    2cfc:	00040513          	mv	a0,s0
    2d00:	065020ef          	jal	5564 <__divsf3>
    2d04:	00090593          	mv	a1,s2
    2d08:	521020ef          	jal	5a28 <__mulsf3>
    2d0c:	00050913          	mv	s2,a0
    2d10:	00090593          	mv	a1,s2
    2d14:	00098513          	mv	a0,s3
    2d18:	41c020ef          	jal	5134 <__addsf3>
    2d1c:	000077b7          	lui	a5,0x7
    2d20:	d047a583          	lw	a1,-764(a5) # 6d04 <__text_end+0x24>
    2d24:	00050993          	mv	s3,a0
    2d28:	00040513          	mv	a0,s0
    2d2c:	039020ef          	jal	5564 <__divsf3>
    2d30:	00090593          	mv	a1,s2
    2d34:	4f5020ef          	jal	5a28 <__mulsf3>
    2d38:	00050913          	mv	s2,a0
    2d3c:	00090593          	mv	a1,s2
    2d40:	00098513          	mv	a0,s3
    2d44:	3f0020ef          	jal	5134 <__addsf3>
    2d48:	000077b7          	lui	a5,0x7
    2d4c:	d087a583          	lw	a1,-760(a5) # 6d08 <__text_end+0x28>
    2d50:	00050993          	mv	s3,a0
    2d54:	00040513          	mv	a0,s0
    2d58:	00d020ef          	jal	5564 <__divsf3>
    2d5c:	00090593          	mv	a1,s2
    2d60:	4c9020ef          	jal	5a28 <__mulsf3>
    2d64:	00050913          	mv	s2,a0
    2d68:	00090593          	mv	a1,s2
    2d6c:	00098513          	mv	a0,s3
    2d70:	3c4020ef          	jal	5134 <__addsf3>
    2d74:	00007737          	lui	a4,0x7
    2d78:	d0c72583          	lw	a1,-756(a4) # 6d0c <__text_end+0x2c>
    2d7c:	00050793          	mv	a5,a0
    2d80:	00040513          	mv	a0,s0
    2d84:	00078413          	mv	s0,a5
    2d88:	4a1020ef          	jal	5a28 <__mulsf3>
    2d8c:	00090593          	mv	a1,s2
    2d90:	499020ef          	jal	5a28 <__mulsf3>
    2d94:	00040593          	mv	a1,s0
    2d98:	39c020ef          	jal	5134 <__addsf3>
    2d9c:	00048663          	beqz	s1,2da8 <expf.part.0+0x1d8>
    2da0:	01749493          	slli	s1,s1,0x17
    2da4:	00a48533          	add	a0,s1,a0
    2da8:	01c12083          	lw	ra,28(sp)
    2dac:	01812403          	lw	s0,24(sp)
    2db0:	01412483          	lw	s1,20(sp)
    2db4:	01012903          	lw	s2,16(sp)
    2db8:	00c12983          	lw	s3,12(sp)
    2dbc:	00812a03          	lw	s4,8(sp)
    2dc0:	00412a83          	lw	s5,4(sp)
    2dc4:	02010113          	addi	sp,sp,32
    2dc8:	00008067          	ret
    2dcc:	000077b7          	lui	a5,0x7
    2dd0:	d707a603          	lw	a2,-656(a5) # 6d70 <__text_end+0x90>
    2dd4:	d747a683          	lw	a3,-652(a5)
    2dd8:	e55ff06f          	j	2c2c <expf.part.0+0x5c>

00002ddc <logf.part.0>:
    2ddc:	fe010113          	addi	sp,sp,-32
    2de0:	00912a23          	sw	s1,20(sp)
    2de4:	00007737          	lui	a4,0x7
    2de8:	00951493          	slli	s1,a0,0x9
    2dec:	0094d493          	srli	s1,s1,0x9
    2df0:	3f8007b7          	lui	a5,0x3f800
    2df4:	d1072583          	lw	a1,-752(a4) # 6d10 <__text_end+0x30>
    2df8:	00f4e4b3          	or	s1,s1,a5
    2dfc:	00812c23          	sw	s0,24(sp)
    2e00:	01755413          	srli	s0,a0,0x17
    2e04:	00048513          	mv	a0,s1
    2e08:	00112e23          	sw	ra,28(sp)
    2e0c:	01212823          	sw	s2,16(sp)
    2e10:	01312623          	sw	s3,12(sp)
    2e14:	01412423          	sw	s4,8(sp)
    2e18:	0ff47413          	zext.b	s0,s0
    2e1c:	2cd020ef          	jal	58e8 <__gesf2>
    2e20:	16a04063          	bgtz	a0,2f80 <logf.part.0+0x1a4>
    2e24:	00048913          	mv	s2,s1
    2e28:	f8140413          	addi	s0,s0,-127
    2e2c:	000079b7          	lui	s3,0x7
    2e30:	ce49a583          	lw	a1,-796(s3) # 6ce4 <__text_end+0x4>
    2e34:	00090513          	mv	a0,s2
    2e38:	70d020ef          	jal	5d44 <__subsf3>
    2e3c:	ce49a583          	lw	a1,-796(s3)
    2e40:	00050493          	mv	s1,a0
    2e44:	00090513          	mv	a0,s2
    2e48:	2ec020ef          	jal	5134 <__addsf3>
    2e4c:	00050593          	mv	a1,a0
    2e50:	00048513          	mv	a0,s1
    2e54:	710020ef          	jal	5564 <__divsf3>
    2e58:	00050593          	mv	a1,a0
    2e5c:	00050913          	mv	s2,a0
    2e60:	3c9020ef          	jal	5a28 <__mulsf3>
    2e64:	00050493          	mv	s1,a0
    2e68:	00048593          	mv	a1,s1
    2e6c:	00090513          	mv	a0,s2
    2e70:	3b9020ef          	jal	5a28 <__mulsf3>
    2e74:	000077b7          	lui	a5,0x7
    2e78:	cf87a583          	lw	a1,-776(a5) # 6cf8 <__text_end+0x18>
    2e7c:	00050a13          	mv	s4,a0
    2e80:	6e4020ef          	jal	5564 <__divsf3>
    2e84:	00090593          	mv	a1,s2
    2e88:	2ac020ef          	jal	5134 <__addsf3>
    2e8c:	00050993          	mv	s3,a0
    2e90:	000a0593          	mv	a1,s4
    2e94:	00048513          	mv	a0,s1
    2e98:	391020ef          	jal	5a28 <__mulsf3>
    2e9c:	000077b7          	lui	a5,0x7
    2ea0:	d007a583          	lw	a1,-768(a5) # 6d00 <__text_end+0x20>
    2ea4:	00050913          	mv	s2,a0
    2ea8:	6bc020ef          	jal	5564 <__divsf3>
    2eac:	00098593          	mv	a1,s3
    2eb0:	284020ef          	jal	5134 <__addsf3>
    2eb4:	00050993          	mv	s3,a0
    2eb8:	00090593          	mv	a1,s2
    2ebc:	00048513          	mv	a0,s1
    2ec0:	369020ef          	jal	5a28 <__mulsf3>
    2ec4:	000077b7          	lui	a5,0x7
    2ec8:	d087a583          	lw	a1,-760(a5) # 6d08 <__text_end+0x28>
    2ecc:	00050913          	mv	s2,a0
    2ed0:	694020ef          	jal	5564 <__divsf3>
    2ed4:	00098593          	mv	a1,s3
    2ed8:	25c020ef          	jal	5134 <__addsf3>
    2edc:	00050993          	mv	s3,a0
    2ee0:	00090593          	mv	a1,s2
    2ee4:	00048513          	mv	a0,s1
    2ee8:	341020ef          	jal	5a28 <__mulsf3>
    2eec:	000077b7          	lui	a5,0x7
    2ef0:	d147a583          	lw	a1,-748(a5) # 6d14 <__text_end+0x34>
    2ef4:	00050913          	mv	s2,a0
    2ef8:	66c020ef          	jal	5564 <__divsf3>
    2efc:	00098593          	mv	a1,s3
    2f00:	234020ef          	jal	5134 <__addsf3>
    2f04:	00050793          	mv	a5,a0
    2f08:	00090593          	mv	a1,s2
    2f0c:	00048513          	mv	a0,s1
    2f10:	00078493          	mv	s1,a5
    2f14:	315020ef          	jal	5a28 <__mulsf3>
    2f18:	000077b7          	lui	a5,0x7
    2f1c:	d187a583          	lw	a1,-744(a5) # 6d18 <__text_end+0x38>
    2f20:	644020ef          	jal	5564 <__divsf3>
    2f24:	00048593          	mv	a1,s1
    2f28:	20c020ef          	jal	5134 <__addsf3>
    2f2c:	00050493          	mv	s1,a0
    2f30:	00040513          	mv	a0,s0
    2f34:	2c0030ef          	jal	61f4 <__floatsisf>
    2f38:	000077b7          	lui	a5,0x7
    2f3c:	cf07a583          	lw	a1,-784(a5) # 6cf0 <__text_end+0x10>
    2f40:	2e9020ef          	jal	5a28 <__mulsf3>
    2f44:	00050413          	mv	s0,a0
    2f48:	00048593          	mv	a1,s1
    2f4c:	00048513          	mv	a0,s1
    2f50:	1e4020ef          	jal	5134 <__addsf3>
    2f54:	00050593          	mv	a1,a0
    2f58:	00040513          	mv	a0,s0
    2f5c:	1d8020ef          	jal	5134 <__addsf3>
    2f60:	01c12083          	lw	ra,28(sp)
    2f64:	01812403          	lw	s0,24(sp)
    2f68:	01412483          	lw	s1,20(sp)
    2f6c:	01012903          	lw	s2,16(sp)
    2f70:	00c12983          	lw	s3,12(sp)
    2f74:	00812a03          	lw	s4,8(sp)
    2f78:	02010113          	addi	sp,sp,32
    2f7c:	00008067          	ret
    2f80:	000077b7          	lui	a5,0x7
    2f84:	cf47a583          	lw	a1,-780(a5) # 6cf4 <__text_end+0x14>
    2f88:	00048513          	mv	a0,s1
    2f8c:	f8240413          	addi	s0,s0,-126
    2f90:	299020ef          	jal	5a28 <__mulsf3>
    2f94:	00050913          	mv	s2,a0
    2f98:	e95ff06f          	j	2e2c <logf.part.0+0x50>

00002f9c <sqrtf>:
    2f9c:	fe010113          	addi	sp,sp,-32
    2fa0:	00000593          	li	a1,0
    2fa4:	00812c23          	sw	s0,24(sp)
    2fa8:	00112e23          	sw	ra,28(sp)
    2fac:	00050413          	mv	s0,a0
    2fb0:	1d9020ef          	jal	5988 <__lesf2>
    2fb4:	00000593          	li	a1,0
    2fb8:	10054063          	bltz	a0,30b8 <sqrtf+0x11c>
    2fbc:	00040513          	mv	a0,s0
    2fc0:	0c1020ef          	jal	5880 <__eqsf2>
    2fc4:	0e050063          	beqz	a0,30a4 <sqrtf+0x108>
    2fc8:	000077b7          	lui	a5,0x7
    2fcc:	ce47a583          	lw	a1,-796(a5) # 6ce4 <__text_end+0x4>
    2fd0:	00040513          	mv	a0,s0
    2fd4:	0ad020ef          	jal	5880 <__eqsf2>
    2fd8:	0c050663          	beqz	a0,30a4 <sqrtf+0x108>
    2fdc:	000077b7          	lui	a5,0x7
    2fe0:	cf47a583          	lw	a1,-780(a5) # 6cf4 <__text_end+0x14>
    2fe4:	00912a23          	sw	s1,20(sp)
    2fe8:	5f3764b7          	lui	s1,0x5f376
    2fec:	00145793          	srli	a5,s0,0x1
    2ff0:	00040513          	mv	a0,s0
    2ff4:	9df48493          	addi	s1,s1,-1569 # 5f3759df <__heap_end+0x4b3759df>
    2ff8:	40f484b3          	sub	s1,s1,a5
    2ffc:	01212823          	sw	s2,16(sp)
    3000:	01312623          	sw	s3,12(sp)
    3004:	225020ef          	jal	5a28 <__mulsf3>
    3008:	00048593          	mv	a1,s1
    300c:	00050913          	mv	s2,a0
    3010:	219020ef          	jal	5a28 <__mulsf3>
    3014:	00048593          	mv	a1,s1
    3018:	000079b7          	lui	s3,0x7
    301c:	20d020ef          	jal	5a28 <__mulsf3>
    3020:	00050593          	mv	a1,a0
    3024:	d1c9a503          	lw	a0,-740(s3) # 6d1c <__text_end+0x3c>
    3028:	51d020ef          	jal	5d44 <__subsf3>
    302c:	00048593          	mv	a1,s1
    3030:	1f9020ef          	jal	5a28 <__mulsf3>
    3034:	00050493          	mv	s1,a0
    3038:	00048593          	mv	a1,s1
    303c:	00090513          	mv	a0,s2
    3040:	1e9020ef          	jal	5a28 <__mulsf3>
    3044:	00048593          	mv	a1,s1
    3048:	1e1020ef          	jal	5a28 <__mulsf3>
    304c:	00050593          	mv	a1,a0
    3050:	d1c9a503          	lw	a0,-740(s3)
    3054:	4f1020ef          	jal	5d44 <__subsf3>
    3058:	00048593          	mv	a1,s1
    305c:	1cd020ef          	jal	5a28 <__mulsf3>
    3060:	00050493          	mv	s1,a0
    3064:	00048593          	mv	a1,s1
    3068:	00090513          	mv	a0,s2
    306c:	1bd020ef          	jal	5a28 <__mulsf3>
    3070:	00048593          	mv	a1,s1
    3074:	1b5020ef          	jal	5a28 <__mulsf3>
    3078:	00050593          	mv	a1,a0
    307c:	d1c9a503          	lw	a0,-740(s3)
    3080:	4c5020ef          	jal	5d44 <__subsf3>
    3084:	00048593          	mv	a1,s1
    3088:	1a1020ef          	jal	5a28 <__mulsf3>
    308c:	00040593          	mv	a1,s0
    3090:	199020ef          	jal	5a28 <__mulsf3>
    3094:	01412483          	lw	s1,20(sp)
    3098:	01012903          	lw	s2,16(sp)
    309c:	00c12983          	lw	s3,12(sp)
    30a0:	00050413          	mv	s0,a0
    30a4:	01c12083          	lw	ra,28(sp)
    30a8:	00040513          	mv	a0,s0
    30ac:	01812403          	lw	s0,24(sp)
    30b0:	02010113          	addi	sp,sp,32
    30b4:	00008067          	ret
    30b8:	00058513          	mv	a0,a1
    30bc:	4a8020ef          	jal	5564 <__divsf3>
    30c0:	00050413          	mv	s0,a0
    30c4:	01c12083          	lw	ra,28(sp)
    30c8:	00040513          	mv	a0,s0
    30cc:	01812403          	lw	s0,24(sp)
    30d0:	02010113          	addi	sp,sp,32
    30d4:	00008067          	ret

000030d8 <expf>:
    30d8:	ff010113          	addi	sp,sp,-16
    30dc:	00000593          	li	a1,0
    30e0:	00812423          	sw	s0,8(sp)
    30e4:	00112623          	sw	ra,12(sp)
    30e8:	00050413          	mv	s0,a0
    30ec:	794020ef          	jal	5880 <__eqsf2>
    30f0:	06050063          	beqz	a0,3150 <expf+0x78>
    30f4:	000077b7          	lui	a5,0x7
    30f8:	d207a583          	lw	a1,-736(a5) # 6d20 <__text_end+0x40>
    30fc:	00040513          	mv	a0,s0
    3100:	7e8020ef          	jal	58e8 <__gesf2>
    3104:	02a04663          	bgtz	a0,3130 <expf+0x58>
    3108:	000077b7          	lui	a5,0x7
    310c:	d247a583          	lw	a1,-732(a5) # 6d24 <__text_end+0x44>
    3110:	00040513          	mv	a0,s0
    3114:	075020ef          	jal	5988 <__lesf2>
    3118:	04054863          	bltz	a0,3168 <expf+0x90>
    311c:	00040513          	mv	a0,s0
    3120:	00812403          	lw	s0,8(sp)
    3124:	00c12083          	lw	ra,12(sp)
    3128:	01010113          	addi	sp,sp,16
    312c:	aa5ff06f          	j	2bd0 <expf.part.0>
    3130:	000077b7          	lui	a5,0x7
    3134:	ce47a503          	lw	a0,-796(a5) # 6ce4 <__text_end+0x4>
    3138:	00000593          	li	a1,0
    313c:	428020ef          	jal	5564 <__divsf3>
    3140:	00c12083          	lw	ra,12(sp)
    3144:	00812403          	lw	s0,8(sp)
    3148:	01010113          	addi	sp,sp,16
    314c:	00008067          	ret
    3150:	00c12083          	lw	ra,12(sp)
    3154:	00812403          	lw	s0,8(sp)
    3158:	000077b7          	lui	a5,0x7
    315c:	ce47a503          	lw	a0,-796(a5) # 6ce4 <__text_end+0x4>
    3160:	01010113          	addi	sp,sp,16
    3164:	00008067          	ret
    3168:	00c12083          	lw	ra,12(sp)
    316c:	00812403          	lw	s0,8(sp)
    3170:	00000513          	li	a0,0
    3174:	01010113          	addi	sp,sp,16
    3178:	00008067          	ret

0000317c <powf>:
    317c:	fe010113          	addi	sp,sp,-32
    3180:	00912a23          	sw	s1,20(sp)
    3184:	00058493          	mv	s1,a1
    3188:	00812c23          	sw	s0,24(sp)
    318c:	00000593          	li	a1,0
    3190:	00050413          	mv	s0,a0
    3194:	00048513          	mv	a0,s1
    3198:	00112e23          	sw	ra,28(sp)
    319c:	6e4020ef          	jal	5880 <__eqsf2>
    31a0:	0c050c63          	beqz	a0,3278 <powf+0xfc>
    31a4:	00000593          	li	a1,0
    31a8:	00040513          	mv	a0,s0
    31ac:	6d4020ef          	jal	5880 <__eqsf2>
    31b0:	0a050663          	beqz	a0,325c <powf+0xe0>
    31b4:	000077b7          	lui	a5,0x7
    31b8:	01212823          	sw	s2,16(sp)
    31bc:	ce47a903          	lw	s2,-796(a5) # 6ce4 <__text_end+0x4>
    31c0:	00040513          	mv	a0,s0
    31c4:	00090593          	mv	a1,s2
    31c8:	6b8020ef          	jal	5880 <__eqsf2>
    31cc:	10050663          	beqz	a0,32d8 <powf+0x15c>
    31d0:	00000593          	li	a1,0
    31d4:	00040513          	mv	a0,s0
    31d8:	7b0020ef          	jal	5988 <__lesf2>
    31dc:	0a054e63          	bltz	a0,3298 <powf+0x11c>
    31e0:	00000593          	li	a1,0
    31e4:	00040513          	mv	a0,s0
    31e8:	7a0020ef          	jal	5988 <__lesf2>
    31ec:	1ea05863          	blez	a0,33dc <powf+0x260>
    31f0:	00040513          	mv	a0,s0
    31f4:	be9ff0ef          	jal	2ddc <logf.part.0>
    31f8:	00050593          	mv	a1,a0
    31fc:	00048513          	mv	a0,s1
    3200:	029020ef          	jal	5a28 <__mulsf3>
    3204:	00000593          	li	a1,0
    3208:	00050413          	mv	s0,a0
    320c:	00050493          	mv	s1,a0
    3210:	670020ef          	jal	5880 <__eqsf2>
    3214:	1a050263          	beqz	a0,33b8 <powf+0x23c>
    3218:	000077b7          	lui	a5,0x7
    321c:	d207a583          	lw	a1,-736(a5) # 6d20 <__text_end+0x40>
    3220:	00040513          	mv	a0,s0
    3224:	6c4020ef          	jal	58e8 <__gesf2>
    3228:	18a04e63          	bgtz	a0,33c4 <powf+0x248>
    322c:	000077b7          	lui	a5,0x7
    3230:	d247a583          	lw	a1,-732(a5) # 6d24 <__text_end+0x44>
    3234:	00040513          	mv	a0,s0
    3238:	750020ef          	jal	5988 <__lesf2>
    323c:	14054063          	bltz	a0,337c <powf+0x200>
    3240:	01812403          	lw	s0,24(sp)
    3244:	01012903          	lw	s2,16(sp)
    3248:	01c12083          	lw	ra,28(sp)
    324c:	00048513          	mv	a0,s1
    3250:	01412483          	lw	s1,20(sp)
    3254:	02010113          	addi	sp,sp,32
    3258:	979ff06f          	j	2bd0 <expf.part.0>
    325c:	00000413          	li	s0,0
    3260:	01c12083          	lw	ra,28(sp)
    3264:	00040513          	mv	a0,s0
    3268:	01812403          	lw	s0,24(sp)
    326c:	01412483          	lw	s1,20(sp)
    3270:	02010113          	addi	sp,sp,32
    3274:	00008067          	ret
    3278:	000077b7          	lui	a5,0x7
    327c:	ce47a403          	lw	s0,-796(a5) # 6ce4 <__text_end+0x4>
    3280:	01c12083          	lw	ra,28(sp)
    3284:	01412483          	lw	s1,20(sp)
    3288:	00040513          	mv	a0,s0
    328c:	01812403          	lw	s0,24(sp)
    3290:	02010113          	addi	sp,sp,32
    3294:	00008067          	ret
    3298:	00048513          	mv	a0,s1
    329c:	01312623          	sw	s3,12(sp)
    32a0:	6e5020ef          	jal	6184 <__fixsfsi>
    32a4:	00050993          	mv	s3,a0
    32a8:	74d020ef          	jal	61f4 <__floatsisf>
    32ac:	00050593          	mv	a1,a0
    32b0:	00048513          	mv	a0,s1
    32b4:	5cc020ef          	jal	5880 <__eqsf2>
    32b8:	02050e63          	beqz	a0,32f4 <powf+0x178>
    32bc:	00000593          	li	a1,0
    32c0:	00058513          	mv	a0,a1
    32c4:	2a0020ef          	jal	5564 <__divsf3>
    32c8:	00050413          	mv	s0,a0
    32cc:	01012903          	lw	s2,16(sp)
    32d0:	00c12983          	lw	s3,12(sp)
    32d4:	f8dff06f          	j	3260 <powf+0xe4>
    32d8:	01c12083          	lw	ra,28(sp)
    32dc:	00040513          	mv	a0,s0
    32e0:	01812403          	lw	s0,24(sp)
    32e4:	01012903          	lw	s2,16(sp)
    32e8:	01412483          	lw	s1,20(sp)
    32ec:	02010113          	addi	sp,sp,32
    32f0:	00008067          	ret
    32f4:	000077b7          	lui	a5,0x7
    32f8:	d287a583          	lw	a1,-728(a5) # 6d28 <__text_end+0x48>
    32fc:	00040513          	mv	a0,s0
    3300:	580020ef          	jal	5880 <__eqsf2>
    3304:	08050263          	beqz	a0,3388 <powf+0x20c>
    3308:	80000537          	lui	a0,0x80000
    330c:	00854533          	xor	a0,a0,s0
    3310:	acdff0ef          	jal	2ddc <logf.part.0>
    3314:	00050593          	mv	a1,a0
    3318:	00048513          	mv	a0,s1
    331c:	70c020ef          	jal	5a28 <__mulsf3>
    3320:	00000593          	li	a1,0
    3324:	00050493          	mv	s1,a0
    3328:	558020ef          	jal	5880 <__eqsf2>
    332c:	00090413          	mv	s0,s2
    3330:	02050863          	beqz	a0,3360 <powf+0x1e4>
    3334:	000077b7          	lui	a5,0x7
    3338:	d207a583          	lw	a1,-736(a5) # 6d20 <__text_end+0x40>
    333c:	00048513          	mv	a0,s1
    3340:	5a8020ef          	jal	58e8 <__gesf2>
    3344:	0ca04063          	bgtz	a0,3404 <powf+0x288>
    3348:	000077b7          	lui	a5,0x7
    334c:	d247a583          	lw	a1,-732(a5) # 6d24 <__text_end+0x44>
    3350:	00048513          	mv	a0,s1
    3354:	00000413          	li	s0,0
    3358:	630020ef          	jal	5988 <__lesf2>
    335c:	04055663          	bgez	a0,33a8 <powf+0x22c>
    3360:	0019f513          	andi	a0,s3,1
    3364:	08050a63          	beqz	a0,33f8 <powf+0x27c>
    3368:	800007b7          	lui	a5,0x80000
    336c:	01012903          	lw	s2,16(sp)
    3370:	00c12983          	lw	s3,12(sp)
    3374:	0087c433          	xor	s0,a5,s0
    3378:	ee9ff06f          	j	3260 <powf+0xe4>
    337c:	01012903          	lw	s2,16(sp)
    3380:	00000413          	li	s0,0
    3384:	eddff06f          	j	3260 <powf+0xe4>
    3388:	00048513          	mv	a0,s1
    338c:	00000593          	li	a1,0
    3390:	698020ef          	jal	5a28 <__mulsf3>
    3394:	00000593          	li	a1,0
    3398:	00050493          	mv	s1,a0
    339c:	4e4020ef          	jal	5880 <__eqsf2>
    33a0:	00090413          	mv	s0,s2
    33a4:	fa050ee3          	beqz	a0,3360 <powf+0x1e4>
    33a8:	00048513          	mv	a0,s1
    33ac:	825ff0ef          	jal	2bd0 <expf.part.0>
    33b0:	00050413          	mv	s0,a0
    33b4:	fadff06f          	j	3360 <powf+0x1e4>
    33b8:	00090413          	mv	s0,s2
    33bc:	01012903          	lw	s2,16(sp)
    33c0:	ea1ff06f          	j	3260 <powf+0xe4>
    33c4:	00090513          	mv	a0,s2
    33c8:	00000593          	li	a1,0
    33cc:	198020ef          	jal	5564 <__divsf3>
    33d0:	00050413          	mv	s0,a0
    33d4:	01012903          	lw	s2,16(sp)
    33d8:	e89ff06f          	j	3260 <powf+0xe4>
    33dc:	00000593          	li	a1,0
    33e0:	00058513          	mv	a0,a1
    33e4:	180020ef          	jal	5564 <__divsf3>
    33e8:	00048593          	mv	a1,s1
    33ec:	63c020ef          	jal	5a28 <__mulsf3>
    33f0:	00050493          	mv	s1,a0
    33f4:	e4dff06f          	j	3240 <powf+0xc4>
    33f8:	01012903          	lw	s2,16(sp)
    33fc:	00c12983          	lw	s3,12(sp)
    3400:	e61ff06f          	j	3260 <powf+0xe4>
    3404:	00090513          	mv	a0,s2
    3408:	00000593          	li	a1,0
    340c:	158020ef          	jal	5564 <__divsf3>
    3410:	00050413          	mv	s0,a0
    3414:	f4dff06f          	j	3360 <powf+0x1e4>

00003418 <cosf>:
    3418:	fe010113          	addi	sp,sp,-32
    341c:	01212823          	sw	s2,16(sp)
    3420:	00007937          	lui	s2,0x7
    3424:	d2c92583          	lw	a1,-724(s2) # 6d2c <__text_end+0x4c>
    3428:	00112e23          	sw	ra,28(sp)
    342c:	00812c23          	sw	s0,24(sp)
    3430:	00912a23          	sw	s1,20(sp)
    3434:	01312623          	sw	s3,12(sp)
    3438:	00050413          	mv	s0,a0
    343c:	128020ef          	jal	5564 <__divsf3>
    3440:	545020ef          	jal	6184 <__fixsfsi>
    3444:	5b1020ef          	jal	61f4 <__floatsisf>
    3448:	d2c92583          	lw	a1,-724(s2)
    344c:	000079b7          	lui	s3,0x7
    3450:	5d8020ef          	jal	5a28 <__mulsf3>
    3454:	00050593          	mv	a1,a0
    3458:	00040513          	mv	a0,s0
    345c:	0e9020ef          	jal	5d44 <__subsf3>
    3460:	d309a583          	lw	a1,-720(s3) # 6d30 <__text_end+0x50>
    3464:	00050493          	mv	s1,a0
    3468:	480020ef          	jal	58e8 <__gesf2>
    346c:	12a05663          	blez	a0,3598 <cosf+0x180>
    3470:	d2c92583          	lw	a1,-724(s2)
    3474:	00048513          	mv	a0,s1
    3478:	0cd020ef          	jal	5d44 <__subsf3>
    347c:	00050493          	mv	s1,a0
    3480:	80000437          	lui	s0,0x80000
    3484:	00007737          	lui	a4,0x7
    3488:	fff40793          	addi	a5,s0,-1 # 7fffffff <__heap_end+0x6bffffff>
    348c:	d3872583          	lw	a1,-712(a4) # 6d38 <__text_end+0x58>
    3490:	00f4f4b3          	and	s1,s1,a5
    3494:	00048513          	mv	a0,s1
    3498:	450020ef          	jal	58e8 <__gesf2>
    349c:	12a04263          	bgtz	a0,35c0 <cosf+0x1a8>
    34a0:	00048593          	mv	a1,s1
    34a4:	00048513          	mv	a0,s1
    34a8:	580020ef          	jal	5a28 <__mulsf3>
    34ac:	000077b7          	lui	a5,0x7
    34b0:	cf47a583          	lw	a1,-780(a5) # 6cf4 <__text_end+0x14>
    34b4:	00a44433          	xor	s0,s0,a0
    34b8:	00040513          	mv	a0,s0
    34bc:	56c020ef          	jal	5a28 <__mulsf3>
    34c0:	000077b7          	lui	a5,0x7
    34c4:	ce47a583          	lw	a1,-796(a5) # 6ce4 <__text_end+0x4>
    34c8:	00050493          	mv	s1,a0
    34cc:	469010ef          	jal	5134 <__addsf3>
    34d0:	000077b7          	lui	a5,0x7
    34d4:	d3c7a583          	lw	a1,-708(a5) # 6d3c <__text_end+0x5c>
    34d8:	00050913          	mv	s2,a0
    34dc:	00040513          	mv	a0,s0
    34e0:	084020ef          	jal	5564 <__divsf3>
    34e4:	00048593          	mv	a1,s1
    34e8:	540020ef          	jal	5a28 <__mulsf3>
    34ec:	00050493          	mv	s1,a0
    34f0:	00048593          	mv	a1,s1
    34f4:	00090513          	mv	a0,s2
    34f8:	43d010ef          	jal	5134 <__addsf3>
    34fc:	000077b7          	lui	a5,0x7
    3500:	d407a583          	lw	a1,-704(a5) # 6d40 <__text_end+0x60>
    3504:	00050913          	mv	s2,a0
    3508:	00040513          	mv	a0,s0
    350c:	058020ef          	jal	5564 <__divsf3>
    3510:	00048593          	mv	a1,s1
    3514:	514020ef          	jal	5a28 <__mulsf3>
    3518:	00050493          	mv	s1,a0
    351c:	00048593          	mv	a1,s1
    3520:	00090513          	mv	a0,s2
    3524:	411010ef          	jal	5134 <__addsf3>
    3528:	000077b7          	lui	a5,0x7
    352c:	d447a583          	lw	a1,-700(a5) # 6d44 <__text_end+0x64>
    3530:	00050913          	mv	s2,a0
    3534:	00040513          	mv	a0,s0
    3538:	02c020ef          	jal	5564 <__divsf3>
    353c:	00048593          	mv	a1,s1
    3540:	4e8020ef          	jal	5a28 <__mulsf3>
    3544:	00050493          	mv	s1,a0
    3548:	00048593          	mv	a1,s1
    354c:	00090513          	mv	a0,s2
    3550:	3e5010ef          	jal	5134 <__addsf3>
    3554:	00007737          	lui	a4,0x7
    3558:	d4872583          	lw	a1,-696(a4) # 6d48 <__text_end+0x68>
    355c:	00050793          	mv	a5,a0
    3560:	00040513          	mv	a0,s0
    3564:	00078413          	mv	s0,a5
    3568:	7fd010ef          	jal	5564 <__divsf3>
    356c:	00048593          	mv	a1,s1
    3570:	4b8020ef          	jal	5a28 <__mulsf3>
    3574:	00040593          	mv	a1,s0
    3578:	3bd010ef          	jal	5134 <__addsf3>
    357c:	01c12083          	lw	ra,28(sp)
    3580:	01812403          	lw	s0,24(sp)
    3584:	01412483          	lw	s1,20(sp)
    3588:	01012903          	lw	s2,16(sp)
    358c:	00c12983          	lw	s3,12(sp)
    3590:	02010113          	addi	sp,sp,32
    3594:	00008067          	ret
    3598:	000077b7          	lui	a5,0x7
    359c:	d347a583          	lw	a1,-716(a5) # 6d34 <__text_end+0x54>
    35a0:	00048513          	mv	a0,s1
    35a4:	3e4020ef          	jal	5988 <__lesf2>
    35a8:	ec055ce3          	bgez	a0,3480 <cosf+0x68>
    35ac:	d2c92583          	lw	a1,-724(s2)
    35b0:	00048513          	mv	a0,s1
    35b4:	381010ef          	jal	5134 <__addsf3>
    35b8:	00050493          	mv	s1,a0
    35bc:	ec5ff06f          	j	3480 <cosf+0x68>
    35c0:	d309a503          	lw	a0,-720(s3)
    35c4:	00048593          	mv	a1,s1
    35c8:	77c020ef          	jal	5d44 <__subsf3>
    35cc:	e4dff0ef          	jal	3418 <cosf>
    35d0:	01c12083          	lw	ra,28(sp)
    35d4:	00a44533          	xor	a0,s0,a0
    35d8:	01812403          	lw	s0,24(sp)
    35dc:	01412483          	lw	s1,20(sp)
    35e0:	01012903          	lw	s2,16(sp)
    35e4:	00c12983          	lw	s3,12(sp)
    35e8:	02010113          	addi	sp,sp,32
    35ec:	00008067          	ret

000035f0 <sinf>:
    35f0:	ff010113          	addi	sp,sp,-16
    35f4:	00912223          	sw	s1,4(sp)
    35f8:	000074b7          	lui	s1,0x7
    35fc:	d2c4a583          	lw	a1,-724(s1) # 6d2c <__text_end+0x4c>
    3600:	00112623          	sw	ra,12(sp)
    3604:	00812423          	sw	s0,8(sp)
    3608:	01212023          	sw	s2,0(sp)
    360c:	00050413          	mv	s0,a0
    3610:	755010ef          	jal	5564 <__divsf3>
    3614:	371020ef          	jal	6184 <__fixsfsi>
    3618:	3dd020ef          	jal	61f4 <__floatsisf>
    361c:	d2c4a583          	lw	a1,-724(s1)
    3620:	00007937          	lui	s2,0x7
    3624:	404020ef          	jal	5a28 <__mulsf3>
    3628:	00050593          	mv	a1,a0
    362c:	00040513          	mv	a0,s0
    3630:	714020ef          	jal	5d44 <__subsf3>
    3634:	d3092583          	lw	a1,-720(s2) # 6d30 <__text_end+0x50>
    3638:	00050413          	mv	s0,a0
    363c:	2ac020ef          	jal	58e8 <__gesf2>
    3640:	06a05263          	blez	a0,36a4 <sinf+0xb4>
    3644:	d2c4a583          	lw	a1,-724(s1)
    3648:	00040513          	mv	a0,s0
    364c:	6f8020ef          	jal	5d44 <__subsf3>
    3650:	00050413          	mv	s0,a0
    3654:	000077b7          	lui	a5,0x7
    3658:	800004b7          	lui	s1,0x80000
    365c:	d387a583          	lw	a1,-712(a5) # 6d38 <__text_end+0x58>
    3660:	fff48513          	addi	a0,s1,-1 # 7fffffff <__heap_end+0x6bffffff>
    3664:	00857533          	and	a0,a0,s0
    3668:	280020ef          	jal	58e8 <__gesf2>
    366c:	06a05063          	blez	a0,36cc <sinf+0xdc>
    3670:	00000593          	li	a1,0
    3674:	00040513          	mv	a0,s0
    3678:	270020ef          	jal	58e8 <__gesf2>
    367c:	14a05463          	blez	a0,37c4 <sinf+0x1d4>
    3680:	d3092503          	lw	a0,-720(s2)
    3684:	00040593          	mv	a1,s0
    3688:	6bc020ef          	jal	5d44 <__subsf3>
    368c:	00812403          	lw	s0,8(sp)
    3690:	00c12083          	lw	ra,12(sp)
    3694:	00412483          	lw	s1,4(sp)
    3698:	00012903          	lw	s2,0(sp)
    369c:	01010113          	addi	sp,sp,16
    36a0:	d79ff06f          	j	3418 <cosf>
    36a4:	000077b7          	lui	a5,0x7
    36a8:	d347a583          	lw	a1,-716(a5) # 6d34 <__text_end+0x54>
    36ac:	00040513          	mv	a0,s0
    36b0:	2d8020ef          	jal	5988 <__lesf2>
    36b4:	fa0550e3          	bgez	a0,3654 <sinf+0x64>
    36b8:	d2c4a583          	lw	a1,-724(s1)
    36bc:	00040513          	mv	a0,s0
    36c0:	275010ef          	jal	5134 <__addsf3>
    36c4:	00050413          	mv	s0,a0
    36c8:	f8dff06f          	j	3654 <sinf+0x64>
    36cc:	00040593          	mv	a1,s0
    36d0:	00040513          	mv	a0,s0
    36d4:	354020ef          	jal	5a28 <__mulsf3>
    36d8:	000077b7          	lui	a5,0x7
    36dc:	d047a583          	lw	a1,-764(a5) # 6d04 <__text_end+0x24>
    36e0:	00a4c4b3          	xor	s1,s1,a0
    36e4:	00048513          	mv	a0,s1
    36e8:	67d010ef          	jal	5564 <__divsf3>
    36ec:	00040593          	mv	a1,s0
    36f0:	338020ef          	jal	5a28 <__mulsf3>
    36f4:	00040593          	mv	a1,s0
    36f8:	00050413          	mv	s0,a0
    36fc:	239010ef          	jal	5134 <__addsf3>
    3700:	000077b7          	lui	a5,0x7
    3704:	d4c7a583          	lw	a1,-692(a5) # 6d4c <__text_end+0x6c>
    3708:	00050913          	mv	s2,a0
    370c:	00048513          	mv	a0,s1
    3710:	655010ef          	jal	5564 <__divsf3>
    3714:	00040593          	mv	a1,s0
    3718:	310020ef          	jal	5a28 <__mulsf3>
    371c:	00050413          	mv	s0,a0
    3720:	00040593          	mv	a1,s0
    3724:	00090513          	mv	a0,s2
    3728:	20d010ef          	jal	5134 <__addsf3>
    372c:	000077b7          	lui	a5,0x7
    3730:	d507a583          	lw	a1,-688(a5) # 6d50 <__text_end+0x70>
    3734:	00050913          	mv	s2,a0
    3738:	00048513          	mv	a0,s1
    373c:	629010ef          	jal	5564 <__divsf3>
    3740:	00040593          	mv	a1,s0
    3744:	2e4020ef          	jal	5a28 <__mulsf3>
    3748:	00050413          	mv	s0,a0
    374c:	00040593          	mv	a1,s0
    3750:	00090513          	mv	a0,s2
    3754:	1e1010ef          	jal	5134 <__addsf3>
    3758:	000077b7          	lui	a5,0x7
    375c:	d547a583          	lw	a1,-684(a5) # 6d54 <__text_end+0x74>
    3760:	00050913          	mv	s2,a0
    3764:	00048513          	mv	a0,s1
    3768:	5fd010ef          	jal	5564 <__divsf3>
    376c:	00040593          	mv	a1,s0
    3770:	2b8020ef          	jal	5a28 <__mulsf3>
    3774:	00050413          	mv	s0,a0
    3778:	00040593          	mv	a1,s0
    377c:	00090513          	mv	a0,s2
    3780:	1b5010ef          	jal	5134 <__addsf3>
    3784:	00007737          	lui	a4,0x7
    3788:	d5872583          	lw	a1,-680(a4) # 6d58 <__text_end+0x78>
    378c:	00050793          	mv	a5,a0
    3790:	00048513          	mv	a0,s1
    3794:	00078493          	mv	s1,a5
    3798:	5cd010ef          	jal	5564 <__divsf3>
    379c:	00040593          	mv	a1,s0
    37a0:	288020ef          	jal	5a28 <__mulsf3>
    37a4:	00048593          	mv	a1,s1
    37a8:	18d010ef          	jal	5134 <__addsf3>
    37ac:	00c12083          	lw	ra,12(sp)
    37b0:	00812403          	lw	s0,8(sp)
    37b4:	00412483          	lw	s1,4(sp)
    37b8:	00012903          	lw	s2,0(sp)
    37bc:	01010113          	addi	sp,sp,16
    37c0:	00008067          	ret
    37c4:	d3092583          	lw	a1,-720(s2)
    37c8:	00040513          	mv	a0,s0
    37cc:	169010ef          	jal	5134 <__addsf3>
    37d0:	c49ff0ef          	jal	3418 <cosf>
    37d4:	00c12083          	lw	ra,12(sp)
    37d8:	00812403          	lw	s0,8(sp)
    37dc:	00012903          	lw	s2,0(sp)
    37e0:	00a4c533          	xor	a0,s1,a0
    37e4:	00412483          	lw	s1,4(sp)
    37e8:	01010113          	addi	sp,sp,16
    37ec:	00008067          	ret

000037f0 <sprintf>:
    37f0:	fd010113          	addi	sp,sp,-48
    37f4:	02f12223          	sw	a5,36(sp)
    37f8:	00c12c23          	sw	a2,24(sp)
    37fc:	00d12e23          	sw	a3,28(sp)
    3800:	02e12023          	sw	a4,32(sp)
    3804:	03012423          	sw	a6,40(sp)
    3808:	03112623          	sw	a7,44(sp)
    380c:	0005c703          	lbu	a4,0(a1)
    3810:	01810793          	addi	a5,sp,24
    3814:	00f12023          	sw	a5,0(sp)
    3818:	00050793          	mv	a5,a0
    381c:	1e070c63          	beqz	a4,3a14 <sprintf+0x224>
    3820:	02500813          	li	a6,37
    3824:	01200893          	li	a7,18
    3828:	00007337          	lui	t1,0x7
    382c:	01c0006f          	j	3848 <sprintf+0x58>
    3830:	00e78023          	sb	a4,0(a5)
    3834:	00058693          	mv	a3,a1
    3838:	00178793          	addi	a5,a5,1
    383c:	0016c703          	lbu	a4,1(a3)
    3840:	00168593          	addi	a1,a3,1
    3844:	02070a63          	beqz	a4,3878 <sprintf+0x88>
    3848:	00158693          	addi	a3,a1,1
    384c:	ff0712e3          	bne	a4,a6,3830 <sprintf+0x40>
    3850:	0015c703          	lbu	a4,1(a1)
    3854:	1b070263          	beq	a4,a6,39f8 <sprintf+0x208>
    3858:	f9d70713          	addi	a4,a4,-99
    385c:	0ff77713          	zext.b	a4,a4
    3860:	02e8e463          	bltu	a7,a4,3888 <sprintf+0x98>
    3864:	00271713          	slli	a4,a4,0x2
    3868:	a9830613          	addi	a2,t1,-1384 # 6a98 <__clzsi2+0x6a8>
    386c:	00c70733          	add	a4,a4,a2
    3870:	00072703          	lw	a4,0(a4)
    3874:	00070067          	jr	a4
    3878:	00078023          	sb	zero,0(a5)
    387c:	40a78533          	sub	a0,a5,a0
    3880:	03010113          	addi	sp,sp,48
    3884:	00008067          	ret
    3888:	02500713          	li	a4,37
    388c:	00e78023          	sb	a4,0(a5)
    3890:	0015c703          	lbu	a4,1(a1)
    3894:	00278793          	addi	a5,a5,2
    3898:	fee78fa3          	sb	a4,-1(a5)
    389c:	fa1ff06f          	j	383c <sprintf+0x4c>
    38a0:	00012603          	lw	a2,0(sp)
    38a4:	00062703          	lw	a4,0(a2) # bb8000 <__stack_top+0xba8000>
    38a8:	00460613          	addi	a2,a2,4
    38ac:	00c12023          	sw	a2,0(sp)
    38b0:	00075a63          	bgez	a4,38c4 <sprintf+0xd4>
    38b4:	02d00613          	li	a2,45
    38b8:	00c78023          	sb	a2,0(a5)
    38bc:	40e00733          	neg	a4,a4
    38c0:	00178793          	addi	a5,a5,1
    38c4:	ccccd2b7          	lui	t0,0xccccd
    38c8:	ccd28293          	addi	t0,t0,-819 # cccccccd <__heap_end+0xb8cccccd>
    38cc:	00000f13          	li	t5,0
    38d0:	00410e93          	addi	t4,sp,4
    38d4:	00900393          	li	t2,9
    38d8:	02573633          	mulhu	a2,a4,t0
    38dc:	001f0f13          	addi	t5,t5,1
    38e0:	00070f93          	mv	t6,a4
    38e4:	01ee8e33          	add	t3,t4,t5
    38e8:	00365613          	srli	a2,a2,0x3
    38ec:	00261593          	slli	a1,a2,0x2
    38f0:	00c585b3          	add	a1,a1,a2
    38f4:	00159593          	slli	a1,a1,0x1
    38f8:	40b70733          	sub	a4,a4,a1
    38fc:	03070713          	addi	a4,a4,48
    3900:	feee0fa3          	sb	a4,-1(t3)
    3904:	00060713          	mv	a4,a2
    3908:	fdf3c8e3          	blt	t2,t6,38d8 <sprintf+0xe8>
    390c:	000e0713          	mv	a4,t3
    3910:	00078613          	mv	a2,a5
    3914:	fff74583          	lbu	a1,-1(a4)
    3918:	fff70713          	addi	a4,a4,-1
    391c:	00160613          	addi	a2,a2,1
    3920:	feb60fa3          	sb	a1,-1(a2)
    3924:	feee98e3          	bne	t4,a4,3914 <sprintf+0x124>
    3928:	01e787b3          	add	a5,a5,t5
    392c:	f11ff06f          	j	383c <sprintf+0x4c>
    3930:	00012703          	lw	a4,0(sp)
    3934:	00178793          	addi	a5,a5,1
    3938:	00072603          	lw	a2,0(a4)
    393c:	00470713          	addi	a4,a4,4
    3940:	00e12023          	sw	a4,0(sp)
    3944:	fec78fa3          	sb	a2,-1(a5)
    3948:	ef5ff06f          	j	383c <sprintf+0x4c>
    394c:	00012603          	lw	a2,0(sp)
    3950:	ccccd2b7          	lui	t0,0xccccd
    3954:	ccd28293          	addi	t0,t0,-819 # cccccccd <__heap_end+0xb8cccccd>
    3958:	00062703          	lw	a4,0(a2)
    395c:	00460613          	addi	a2,a2,4
    3960:	00c12023          	sw	a2,0(sp)
    3964:	00000f13          	li	t5,0
    3968:	00410e93          	addi	t4,sp,4
    396c:	00900393          	li	t2,9
    3970:	02573633          	mulhu	a2,a4,t0
    3974:	001f0f13          	addi	t5,t5,1
    3978:	00070f93          	mv	t6,a4
    397c:	01ee8e33          	add	t3,t4,t5
    3980:	00365613          	srli	a2,a2,0x3
    3984:	00261593          	slli	a1,a2,0x2
    3988:	00c585b3          	add	a1,a1,a2
    398c:	00159593          	slli	a1,a1,0x1
    3990:	40b70733          	sub	a4,a4,a1
    3994:	03070713          	addi	a4,a4,48
    3998:	feee0fa3          	sb	a4,-1(t3)
    399c:	00060713          	mv	a4,a2
    39a0:	fdf3e8e3          	bltu	t2,t6,3970 <sprintf+0x180>
    39a4:	000e0713          	mv	a4,t3
    39a8:	00078613          	mv	a2,a5
    39ac:	fff74583          	lbu	a1,-1(a4)
    39b0:	fff70713          	addi	a4,a4,-1
    39b4:	00160613          	addi	a2,a2,1
    39b8:	feb60fa3          	sb	a1,-1(a2)
    39bc:	feee98e3          	bne	t4,a4,39ac <sprintf+0x1bc>
    39c0:	01e787b3          	add	a5,a5,t5
    39c4:	e79ff06f          	j	383c <sprintf+0x4c>
    39c8:	00012603          	lw	a2,0(sp)
    39cc:	00062703          	lw	a4,0(a2)
    39d0:	00460613          	addi	a2,a2,4
    39d4:	00c12023          	sw	a2,0(sp)
    39d8:	00071a63          	bnez	a4,39ec <sprintf+0x1fc>
    39dc:	0280006f          	j	3a04 <sprintf+0x214>
    39e0:	00178793          	addi	a5,a5,1
    39e4:	00170713          	addi	a4,a4,1
    39e8:	fec78fa3          	sb	a2,-1(a5)
    39ec:	00074603          	lbu	a2,0(a4)
    39f0:	fe0618e3          	bnez	a2,39e0 <sprintf+0x1f0>
    39f4:	e49ff06f          	j	383c <sprintf+0x4c>
    39f8:	01078023          	sb	a6,0(a5)
    39fc:	00178793          	addi	a5,a5,1
    3a00:	e3dff06f          	j	383c <sprintf+0x4c>
    3a04:	00006737          	lui	a4,0x6
    3a08:	48070713          	addi	a4,a4,1152 # 6480 <__clzsi2+0x90>
    3a0c:	02800613          	li	a2,40
    3a10:	fd1ff06f          	j	39e0 <sprintf+0x1f0>
    3a14:	00078023          	sb	zero,0(a5)
    3a18:	00000513          	li	a0,0
    3a1c:	03010113          	addi	sp,sp,48
    3a20:	00008067          	ret

00003a24 <sscanf>:
    3a24:	f8010113          	addi	sp,sp,-128
    3a28:	04812c23          	sw	s0,88(sp)
    3a2c:	03a12823          	sw	s10,48(sp)
    3a30:	04112e23          	sw	ra,92(sp)
    3a34:	00058413          	mv	s0,a1
    3a38:	0005c583          	lbu	a1,0(a1)
    3a3c:	06810313          	addi	t1,sp,104
    3a40:	06c12423          	sw	a2,104(sp)
    3a44:	06d12623          	sw	a3,108(sp)
    3a48:	06e12823          	sw	a4,112(sp)
    3a4c:	06f12a23          	sw	a5,116(sp)
    3a50:	07012c23          	sw	a6,120(sp)
    3a54:	07112e23          	sw	a7,124(sp)
    3a58:	00612e23          	sw	t1,28(sp)
    3a5c:	00000d13          	li	s10,0
    3a60:	0e058c63          	beqz	a1,3b58 <sscanf+0x134>
    3a64:	000076b7          	lui	a3,0x7
    3a68:	ce46a783          	lw	a5,-796(a3) # 6ce4 <__text_end+0x4>
    3a6c:	00007737          	lui	a4,0x7
    3a70:	03912a23          	sw	s9,52(sp)
    3a74:	d6072c83          	lw	s9,-672(a4) # 6d60 <__text_end+0x80>
    3a78:	03812c23          	sw	s8,56(sp)
    3a7c:	03b12623          	sw	s11,44(sp)
    3a80:	04912a23          	sw	s1,84(sp)
    3a84:	05212823          	sw	s2,80(sp)
    3a88:	05312623          	sw	s3,76(sp)
    3a8c:	05412423          	sw	s4,72(sp)
    3a90:	05512223          	sw	s5,68(sp)
    3a94:	05612023          	sw	s6,64(sp)
    3a98:	03712e23          	sw	s7,60(sp)
    3a9c:	00050d93          	mv	s11,a0
    3aa0:	00f12623          	sw	a5,12(sp)
    3aa4:	00500c13          	li	s8,5
    3aa8:	000dc703          	lbu	a4,0(s11)
    3aac:	08070263          	beqz	a4,3b30 <sscanf+0x10c>
    3ab0:	02500713          	li	a4,37
    3ab4:	2ce59463          	bne	a1,a4,3d7c <sscanf+0x358>
    3ab8:	00144703          	lbu	a4,1(s0)
    3abc:	02000693          	li	a3,32
    3ac0:	fa870713          	addi	a4,a4,-88
    3ac4:	0ff77713          	zext.b	a4,a4
    3ac8:	04e6ee63          	bltu	a3,a4,3b24 <sscanf+0x100>
    3acc:	000076b7          	lui	a3,0x7
    3ad0:	00271713          	slli	a4,a4,0x2
    3ad4:	ae468693          	addi	a3,a3,-1308 # 6ae4 <__clzsi2+0x6f4>
    3ad8:	00d70733          	add	a4,a4,a3
    3adc:	00072703          	lw	a4,0(a4)
    3ae0:	00070067          	jr	a4
    3ae4:	01c12703          	lw	a4,28(sp)
    3ae8:	00470693          	addi	a3,a4,4
    3aec:	00072903          	lw	s2,0(a4)
    3af0:	00d12e23          	sw	a3,28(sp)
    3af4:	0080006f          	j	3afc <sscanf+0xd8>
    3af8:	001d8d93          	addi	s11,s11,1
    3afc:	000dc503          	lbu	a0,0(s11)
    3b00:	bf1fe0ef          	jal	26f0 <isspace>
    3b04:	fe051ae3          	bnez	a0,3af8 <sscanf+0xd4>
    3b08:	000dc503          	lbu	a0,0(s11)
    3b0c:	03000713          	li	a4,48
    3b10:	0ee50a63          	beq	a0,a4,3c04 <sscanf+0x1e0>
    3b14:	10051063          	bnez	a0,3c14 <sscanf+0x1f0>
    3b18:	00000493          	li	s1,0
    3b1c:	00992023          	sw	s1,0(s2)
    3b20:	001d0d13          	addi	s10,s10,1
    3b24:	00240413          	addi	s0,s0,2
    3b28:	00044583          	lbu	a1,0(s0)
    3b2c:	f6059ee3          	bnez	a1,3aa8 <sscanf+0x84>
    3b30:	05412483          	lw	s1,84(sp)
    3b34:	05012903          	lw	s2,80(sp)
    3b38:	04c12983          	lw	s3,76(sp)
    3b3c:	04812a03          	lw	s4,72(sp)
    3b40:	04412a83          	lw	s5,68(sp)
    3b44:	04012b03          	lw	s6,64(sp)
    3b48:	03c12b83          	lw	s7,60(sp)
    3b4c:	03812c03          	lw	s8,56(sp)
    3b50:	03412c83          	lw	s9,52(sp)
    3b54:	02c12d83          	lw	s11,44(sp)
    3b58:	05c12083          	lw	ra,92(sp)
    3b5c:	05812403          	lw	s0,88(sp)
    3b60:	000d0513          	mv	a0,s10
    3b64:	03012d03          	lw	s10,48(sp)
    3b68:	08010113          	addi	sp,sp,128
    3b6c:	00008067          	ret
    3b70:	01c12703          	lw	a4,28(sp)
    3b74:	00470693          	addi	a3,a4,4
    3b78:	00072903          	lw	s2,0(a4)
    3b7c:	00d12e23          	sw	a3,28(sp)
    3b80:	0080006f          	j	3b88 <sscanf+0x164>
    3b84:	001d8d93          	addi	s11,s11,1
    3b88:	000dc503          	lbu	a0,0(s11)
    3b8c:	b65fe0ef          	jal	26f0 <isspace>
    3b90:	00050493          	mv	s1,a0
    3b94:	fe0518e3          	bnez	a0,3b84 <sscanf+0x160>
    3b98:	000dc503          	lbu	a0,0(s11)
    3b9c:	02d00713          	li	a4,45
    3ba0:	24e50e63          	beq	a0,a4,3dfc <sscanf+0x3d8>
    3ba4:	02b00713          	li	a4,43
    3ba8:	00100993          	li	s3,1
    3bac:	00e51663          	bne	a0,a4,3bb8 <sscanf+0x194>
    3bb0:	001dc503          	lbu	a0,1(s11)
    3bb4:	013d8db3          	add	s11,s11,s3
    3bb8:	b55fe0ef          	jal	270c <isdigit>
    3bbc:	f60504e3          	beqz	a0,3b24 <sscanf+0x100>
    3bc0:	000dc503          	lbu	a0,0(s11)
    3bc4:	b49fe0ef          	jal	270c <isdigit>
    3bc8:	02050663          	beqz	a0,3bf4 <sscanf+0x1d0>
    3bcc:	000dc683          	lbu	a3,0(s11)
    3bd0:	00249713          	slli	a4,s1,0x2
    3bd4:	00970733          	add	a4,a4,s1
    3bd8:	001dc503          	lbu	a0,1(s11)
    3bdc:	00171713          	slli	a4,a4,0x1
    3be0:	fd068693          	addi	a3,a3,-48
    3be4:	001d8d93          	addi	s11,s11,1
    3be8:	00e684b3          	add	s1,a3,a4
    3bec:	b21fe0ef          	jal	270c <isdigit>
    3bf0:	fc051ee3          	bnez	a0,3bcc <sscanf+0x1a8>
    3bf4:	029989b3          	mul	s3,s3,s1
    3bf8:	001d0d13          	addi	s10,s10,1
    3bfc:	01392023          	sw	s3,0(s2)
    3c00:	f25ff06f          	j	3b24 <sscanf+0x100>
    3c04:	001dc703          	lbu	a4,1(s11)
    3c08:	05800693          	li	a3,88
    3c0c:	0df77713          	andi	a4,a4,223
    3c10:	1cd70e63          	beq	a4,a3,3dec <sscanf+0x3c8>
    3c14:	00000493          	li	s1,0
    3c18:	01c0006f          	j	3c34 <sscanf+0x210>
    3c1c:	00449493          	slli	s1,s1,0x4
    3c20:	fd048493          	addi	s1,s1,-48
    3c24:	009704b3          	add	s1,a4,s1
    3c28:	001dc503          	lbu	a0,1(s11)
    3c2c:	001d8d93          	addi	s11,s11,1
    3c30:	ee0506e3          	beqz	a0,3b1c <sscanf+0xf8>
    3c34:	ad9fe0ef          	jal	270c <isdigit>
    3c38:	000dc703          	lbu	a4,0(s11)
    3c3c:	fe0510e3          	bnez	a0,3c1c <sscanf+0x1f8>
    3c40:	f9f70693          	addi	a3,a4,-97
    3c44:	0ff6f693          	zext.b	a3,a3
    3c48:	18dc6463          	bltu	s8,a3,3dd0 <sscanf+0x3ac>
    3c4c:	00449493          	slli	s1,s1,0x4
    3c50:	fa948493          	addi	s1,s1,-87
    3c54:	009704b3          	add	s1,a4,s1
    3c58:	fd1ff06f          	j	3c28 <sscanf+0x204>
    3c5c:	01c12703          	lw	a4,28(sp)
    3c60:	000d8993          	mv	s3,s11
    3c64:	00470793          	addi	a5,a4,4
    3c68:	00f12e23          	sw	a5,28(sp)
    3c6c:	00072783          	lw	a5,0(a4)
    3c70:	00f12223          	sw	a5,4(sp)
    3c74:	0080006f          	j	3c7c <sscanf+0x258>
    3c78:	00198993          	addi	s3,s3,1
    3c7c:	0009c503          	lbu	a0,0(s3)
    3c80:	a71fe0ef          	jal	26f0 <isspace>
    3c84:	00050493          	mv	s1,a0
    3c88:	fe0518e3          	bnez	a0,3c78 <sscanf+0x254>
    3c8c:	0009c503          	lbu	a0,0(s3)
    3c90:	02d00793          	li	a5,45
    3c94:	18f50063          	beq	a0,a5,3e14 <sscanf+0x3f0>
    3c98:	02b00793          	li	a5,43
    3c9c:	18f50c63          	beq	a0,a5,3e34 <sscanf+0x410>
    3ca0:	00100793          	li	a5,1
    3ca4:	00f12423          	sw	a5,8(sp)
    3ca8:	00098d93          	mv	s11,s3
    3cac:	e6050ce3          	beqz	a0,3b24 <sscanf+0x100>
    3cb0:	00c12a03          	lw	s4,12(sp)
    3cb4:	00000a93          	li	s5,0
    3cb8:	000a8b13          	mv	s6,s5
    3cbc:	02e00b93          	li	s7,46
    3cc0:	a4dfe0ef          	jal	270c <isdigit>
    3cc4:	000dc703          	lbu	a4,0(s11)
    3cc8:	04051a63          	bnez	a0,3d1c <sscanf+0x2f8>
    3ccc:	01771c63          	bne	a4,s7,3ce4 <sscanf+0x2c0>
    3cd0:	00049a63          	bnez	s1,3ce4 <sscanf+0x2c0>
    3cd4:	00100493          	li	s1,1
    3cd8:	001dc503          	lbu	a0,1(s11)
    3cdc:	001d8d93          	addi	s11,s11,1
    3ce0:	fe0510e3          	bnez	a0,3cc0 <sscanf+0x29c>
    3ce4:	e5b980e3          	beq	s3,s11,3b24 <sscanf+0x100>
    3ce8:	000a8593          	mv	a1,s5
    3cec:	000b0513          	mv	a0,s6
    3cf0:	444010ef          	jal	5134 <__addsf3>
    3cf4:	00050493          	mv	s1,a0
    3cf8:	00812503          	lw	a0,8(sp)
    3cfc:	001d0d13          	addi	s10,s10,1
    3d00:	4f4020ef          	jal	61f4 <__floatsisf>
    3d04:	00050593          	mv	a1,a0
    3d08:	00048513          	mv	a0,s1
    3d0c:	51d010ef          	jal	5a28 <__mulsf3>
    3d10:	00412783          	lw	a5,4(sp)
    3d14:	00a7a023          	sw	a0,0(a5)
    3d18:	e0dff06f          	j	3b24 <sscanf+0x100>
    3d1c:	fb770ae3          	beq	a4,s7,3cd0 <sscanf+0x2ac>
    3d20:	fd070513          	addi	a0,a4,-48
    3d24:	4d0020ef          	jal	61f4 <__floatsisf>
    3d28:	00050913          	mv	s2,a0
    3d2c:	02048a63          	beqz	s1,3d60 <sscanf+0x33c>
    3d30:	000a0513          	mv	a0,s4
    3d34:	000c8593          	mv	a1,s9
    3d38:	4f1010ef          	jal	5a28 <__mulsf3>
    3d3c:	00050a13          	mv	s4,a0
    3d40:	000a0593          	mv	a1,s4
    3d44:	00090513          	mv	a0,s2
    3d48:	01d010ef          	jal	5564 <__divsf3>
    3d4c:	00050593          	mv	a1,a0
    3d50:	000a8513          	mv	a0,s5
    3d54:	3e0010ef          	jal	5134 <__addsf3>
    3d58:	00050a93          	mv	s5,a0
    3d5c:	f7dff06f          	j	3cd8 <sscanf+0x2b4>
    3d60:	000b0513          	mv	a0,s6
    3d64:	000c8593          	mv	a1,s9
    3d68:	4c1010ef          	jal	5a28 <__mulsf3>
    3d6c:	00090593          	mv	a1,s2
    3d70:	3c4010ef          	jal	5134 <__addsf3>
    3d74:	00050b13          	mv	s6,a0
    3d78:	f61ff06f          	j	3cd8 <sscanf+0x2b4>
    3d7c:	00058513          	mv	a0,a1
    3d80:	971fe0ef          	jal	26f0 <isspace>
    3d84:	02051063          	bnez	a0,3da4 <sscanf+0x380>
    3d88:	000dc683          	lbu	a3,0(s11)
    3d8c:	00044703          	lbu	a4,0(s0)
    3d90:	dae690e3          	bne	a3,a4,3b30 <sscanf+0x10c>
    3d94:	00140413          	addi	s0,s0,1
    3d98:	001d8d93          	addi	s11,s11,1
    3d9c:	d8dff06f          	j	3b28 <sscanf+0x104>
    3da0:	00140413          	addi	s0,s0,1
    3da4:	00044503          	lbu	a0,0(s0)
    3da8:	949fe0ef          	jal	26f0 <isspace>
    3dac:	fe051ae3          	bnez	a0,3da0 <sscanf+0x37c>
    3db0:	000dc503          	lbu	a0,0(s11)
    3db4:	93dfe0ef          	jal	26f0 <isspace>
    3db8:	d60508e3          	beqz	a0,3b28 <sscanf+0x104>
    3dbc:	001dc503          	lbu	a0,1(s11)
    3dc0:	001d8d93          	addi	s11,s11,1
    3dc4:	92dfe0ef          	jal	26f0 <isspace>
    3dc8:	fe051ae3          	bnez	a0,3dbc <sscanf+0x398>
    3dcc:	d5dff06f          	j	3b28 <sscanf+0x104>
    3dd0:	fbf70693          	addi	a3,a4,-65
    3dd4:	0ff6f693          	zext.b	a3,a3
    3dd8:	d4dc62e3          	bltu	s8,a3,3b1c <sscanf+0xf8>
    3ddc:	00449493          	slli	s1,s1,0x4
    3de0:	fc948493          	addi	s1,s1,-55
    3de4:	009704b3          	add	s1,a4,s1
    3de8:	e41ff06f          	j	3c28 <sscanf+0x204>
    3dec:	002dc503          	lbu	a0,2(s11)
    3df0:	002d8d93          	addi	s11,s11,2
    3df4:	e20510e3          	bnez	a0,3c14 <sscanf+0x1f0>
    3df8:	d21ff06f          	j	3b18 <sscanf+0xf4>
    3dfc:	001dc503          	lbu	a0,1(s11)
    3e00:	fff00993          	li	s3,-1
    3e04:	001d8d93          	addi	s11,s11,1
    3e08:	905fe0ef          	jal	270c <isdigit>
    3e0c:	d0050ce3          	beqz	a0,3b24 <sscanf+0x100>
    3e10:	db1ff06f          	j	3bc0 <sscanf+0x19c>
    3e14:	0019c503          	lbu	a0,1(s3)
    3e18:	fff00793          	li	a5,-1
    3e1c:	00f12423          	sw	a5,8(sp)
    3e20:	00198d93          	addi	s11,s3,1
    3e24:	e80516e3          	bnez	a0,3cb0 <sscanf+0x28c>
    3e28:	00000a93          	li	s5,0
    3e2c:	000a8b13          	mv	s6,s5
    3e30:	eb5ff06f          	j	3ce4 <sscanf+0x2c0>
    3e34:	0019c503          	lbu	a0,1(s3)
    3e38:	00100793          	li	a5,1
    3e3c:	00f12423          	sw	a5,8(sp)
    3e40:	00198d93          	addi	s11,s3,1
    3e44:	e60516e3          	bnez	a0,3cb0 <sscanf+0x28c>
    3e48:	fe1ff06f          	j	3e28 <sscanf+0x404>

00003e4c <__udivdi3>:
    3e4c:	00050893          	mv	a7,a0
    3e50:	00058313          	mv	t1,a1
    3e54:	00060713          	mv	a4,a2
    3e58:	00050813          	mv	a6,a0
    3e5c:	00058793          	mv	a5,a1
    3e60:	28069263          	bnez	a3,40e4 <__udivdi3+0x298>
    3e64:	000075b7          	lui	a1,0x7
    3e68:	be058593          	addi	a1,a1,-1056 # 6be0 <__clz_tab>
    3e6c:	0ec37663          	bgeu	t1,a2,3f58 <__udivdi3+0x10c>
    3e70:	000106b7          	lui	a3,0x10
    3e74:	0cd67863          	bgeu	a2,a3,3f44 <__udivdi3+0xf8>
    3e78:	10063693          	sltiu	a3,a2,256
    3e7c:	0016b693          	seqz	a3,a3
    3e80:	00369693          	slli	a3,a3,0x3
    3e84:	00d65533          	srl	a0,a2,a3
    3e88:	00a585b3          	add	a1,a1,a0
    3e8c:	0005c583          	lbu	a1,0(a1)
    3e90:	02000513          	li	a0,32
    3e94:	00d586b3          	add	a3,a1,a3
    3e98:	40d505b3          	sub	a1,a0,a3
    3e9c:	00d50c63          	beq	a0,a3,3eb4 <__udivdi3+0x68>
    3ea0:	00b317b3          	sll	a5,t1,a1
    3ea4:	00d8d6b3          	srl	a3,a7,a3
    3ea8:	00b61733          	sll	a4,a2,a1
    3eac:	00f6e7b3          	or	a5,a3,a5
    3eb0:	00b89833          	sll	a6,a7,a1
    3eb4:	01075593          	srli	a1,a4,0x10
    3eb8:	02b7d333          	divu	t1,a5,a1
    3ebc:	01071613          	slli	a2,a4,0x10
    3ec0:	01065613          	srli	a2,a2,0x10
    3ec4:	02b7f7b3          	remu	a5,a5,a1
    3ec8:	00030513          	mv	a0,t1
    3ecc:	026608b3          	mul	a7,a2,t1
    3ed0:	01079693          	slli	a3,a5,0x10
    3ed4:	01085793          	srli	a5,a6,0x10
    3ed8:	00d7e7b3          	or	a5,a5,a3
    3edc:	0117fe63          	bgeu	a5,a7,3ef8 <__udivdi3+0xac>
    3ee0:	00f707b3          	add	a5,a4,a5
    3ee4:	fff30513          	addi	a0,t1,-1
    3ee8:	00e7e863          	bltu	a5,a4,3ef8 <__udivdi3+0xac>
    3eec:	0117f663          	bgeu	a5,a7,3ef8 <__udivdi3+0xac>
    3ef0:	ffe30513          	addi	a0,t1,-2
    3ef4:	00e787b3          	add	a5,a5,a4
    3ef8:	411787b3          	sub	a5,a5,a7
    3efc:	02b7d8b3          	divu	a7,a5,a1
    3f00:	01081813          	slli	a6,a6,0x10
    3f04:	01085813          	srli	a6,a6,0x10
    3f08:	02b7f7b3          	remu	a5,a5,a1
    3f0c:	031606b3          	mul	a3,a2,a7
    3f10:	01079793          	slli	a5,a5,0x10
    3f14:	00f86833          	or	a6,a6,a5
    3f18:	00088793          	mv	a5,a7
    3f1c:	00d87c63          	bgeu	a6,a3,3f34 <__udivdi3+0xe8>
    3f20:	01070833          	add	a6,a4,a6
    3f24:	fff88793          	addi	a5,a7,-1
    3f28:	00e86663          	bltu	a6,a4,3f34 <__udivdi3+0xe8>
    3f2c:	00d87463          	bgeu	a6,a3,3f34 <__udivdi3+0xe8>
    3f30:	ffe88793          	addi	a5,a7,-2
    3f34:	01051513          	slli	a0,a0,0x10
    3f38:	00f56533          	or	a0,a0,a5
    3f3c:	00000593          	li	a1,0
    3f40:	00008067          	ret
    3f44:	01000537          	lui	a0,0x1000
    3f48:	01800693          	li	a3,24
    3f4c:	f2a67ce3          	bgeu	a2,a0,3e84 <__udivdi3+0x38>
    3f50:	01000693          	li	a3,16
    3f54:	f31ff06f          	j	3e84 <__udivdi3+0x38>
    3f58:	00000693          	li	a3,0
    3f5c:	00060c63          	beqz	a2,3f74 <__udivdi3+0x128>
    3f60:	000107b7          	lui	a5,0x10
    3f64:	0cf67063          	bgeu	a2,a5,4024 <__udivdi3+0x1d8>
    3f68:	10063693          	sltiu	a3,a2,256
    3f6c:	0016b693          	seqz	a3,a3
    3f70:	00369693          	slli	a3,a3,0x3
    3f74:	00d657b3          	srl	a5,a2,a3
    3f78:	00f585b3          	add	a1,a1,a5
    3f7c:	0005c783          	lbu	a5,0(a1)
    3f80:	00d787b3          	add	a5,a5,a3
    3f84:	02000693          	li	a3,32
    3f88:	40f685b3          	sub	a1,a3,a5
    3f8c:	0af69663          	bne	a3,a5,4038 <__udivdi3+0x1ec>
    3f90:	40c307b3          	sub	a5,t1,a2
    3f94:	00100593          	li	a1,1
    3f98:	01075893          	srli	a7,a4,0x10
    3f9c:	0317de33          	divu	t3,a5,a7
    3fa0:	01071613          	slli	a2,a4,0x10
    3fa4:	01065613          	srli	a2,a2,0x10
    3fa8:	01085693          	srli	a3,a6,0x10
    3fac:	0317f7b3          	remu	a5,a5,a7
    3fb0:	000e0513          	mv	a0,t3
    3fb4:	03c60333          	mul	t1,a2,t3
    3fb8:	01079793          	slli	a5,a5,0x10
    3fbc:	00f6e7b3          	or	a5,a3,a5
    3fc0:	0067fe63          	bgeu	a5,t1,3fdc <__udivdi3+0x190>
    3fc4:	00f707b3          	add	a5,a4,a5
    3fc8:	fffe0513          	addi	a0,t3,-1
    3fcc:	00e7e863          	bltu	a5,a4,3fdc <__udivdi3+0x190>
    3fd0:	0067f663          	bgeu	a5,t1,3fdc <__udivdi3+0x190>
    3fd4:	ffee0513          	addi	a0,t3,-2
    3fd8:	00e787b3          	add	a5,a5,a4
    3fdc:	406787b3          	sub	a5,a5,t1
    3fe0:	0317d333          	divu	t1,a5,a7
    3fe4:	01081813          	slli	a6,a6,0x10
    3fe8:	01085813          	srli	a6,a6,0x10
    3fec:	0317f7b3          	remu	a5,a5,a7
    3ff0:	026606b3          	mul	a3,a2,t1
    3ff4:	01079793          	slli	a5,a5,0x10
    3ff8:	00f86833          	or	a6,a6,a5
    3ffc:	00030793          	mv	a5,t1
    4000:	00d87c63          	bgeu	a6,a3,4018 <__udivdi3+0x1cc>
    4004:	01070833          	add	a6,a4,a6
    4008:	fff30793          	addi	a5,t1,-1
    400c:	00e86663          	bltu	a6,a4,4018 <__udivdi3+0x1cc>
    4010:	00d87463          	bgeu	a6,a3,4018 <__udivdi3+0x1cc>
    4014:	ffe30793          	addi	a5,t1,-2
    4018:	01051513          	slli	a0,a0,0x10
    401c:	00f56533          	or	a0,a0,a5
    4020:	00008067          	ret
    4024:	010007b7          	lui	a5,0x1000
    4028:	01800693          	li	a3,24
    402c:	f4f674e3          	bgeu	a2,a5,3f74 <__udivdi3+0x128>
    4030:	01000693          	li	a3,16
    4034:	f41ff06f          	j	3f74 <__udivdi3+0x128>
    4038:	00b61733          	sll	a4,a2,a1
    403c:	00f356b3          	srl	a3,t1,a5
    4040:	01075513          	srli	a0,a4,0x10
    4044:	00b31333          	sll	t1,t1,a1
    4048:	00f8d7b3          	srl	a5,a7,a5
    404c:	0067e7b3          	or	a5,a5,t1
    4050:	02a6d333          	divu	t1,a3,a0
    4054:	01071613          	slli	a2,a4,0x10
    4058:	01065613          	srli	a2,a2,0x10
    405c:	00b89833          	sll	a6,a7,a1
    4060:	02a6f6b3          	remu	a3,a3,a0
    4064:	026608b3          	mul	a7,a2,t1
    4068:	01069593          	slli	a1,a3,0x10
    406c:	0107d693          	srli	a3,a5,0x10
    4070:	00b6e6b3          	or	a3,a3,a1
    4074:	00030593          	mv	a1,t1
    4078:	0116fe63          	bgeu	a3,a7,4094 <__udivdi3+0x248>
    407c:	00d706b3          	add	a3,a4,a3
    4080:	fff30593          	addi	a1,t1,-1
    4084:	00e6e863          	bltu	a3,a4,4094 <__udivdi3+0x248>
    4088:	0116f663          	bgeu	a3,a7,4094 <__udivdi3+0x248>
    408c:	ffe30593          	addi	a1,t1,-2
    4090:	00e686b3          	add	a3,a3,a4
    4094:	411686b3          	sub	a3,a3,a7
    4098:	02a6d8b3          	divu	a7,a3,a0
    409c:	01079793          	slli	a5,a5,0x10
    40a0:	0107d793          	srli	a5,a5,0x10
    40a4:	02a6f6b3          	remu	a3,a3,a0
    40a8:	03160633          	mul	a2,a2,a7
    40ac:	01069693          	slli	a3,a3,0x10
    40b0:	00d7e7b3          	or	a5,a5,a3
    40b4:	00088693          	mv	a3,a7
    40b8:	00c7fe63          	bgeu	a5,a2,40d4 <__udivdi3+0x288>
    40bc:	00f707b3          	add	a5,a4,a5
    40c0:	fff88693          	addi	a3,a7,-1
    40c4:	00e7e863          	bltu	a5,a4,40d4 <__udivdi3+0x288>
    40c8:	00c7f663          	bgeu	a5,a2,40d4 <__udivdi3+0x288>
    40cc:	ffe88693          	addi	a3,a7,-2
    40d0:	00e787b3          	add	a5,a5,a4
    40d4:	01059593          	slli	a1,a1,0x10
    40d8:	40c787b3          	sub	a5,a5,a2
    40dc:	00d5e5b3          	or	a1,a1,a3
    40e0:	eb9ff06f          	j	3f98 <__udivdi3+0x14c>
    40e4:	18d5e463          	bltu	a1,a3,426c <__udivdi3+0x420>
    40e8:	000107b7          	lui	a5,0x10
    40ec:	04f6f463          	bgeu	a3,a5,4134 <__udivdi3+0x2e8>
    40f0:	1006b793          	sltiu	a5,a3,256
    40f4:	0017b793          	seqz	a5,a5
    40f8:	00379793          	slli	a5,a5,0x3
    40fc:	00007737          	lui	a4,0x7
    4100:	00f6d5b3          	srl	a1,a3,a5
    4104:	be070713          	addi	a4,a4,-1056 # 6be0 <__clz_tab>
    4108:	00b70733          	add	a4,a4,a1
    410c:	00074703          	lbu	a4,0(a4)
    4110:	00f70733          	add	a4,a4,a5
    4114:	02000793          	li	a5,32
    4118:	40e785b3          	sub	a1,a5,a4
    411c:	02e79663          	bne	a5,a4,4148 <__udivdi3+0x2fc>
    4120:	00100513          	li	a0,1
    4124:	e066eee3          	bltu	a3,t1,3f40 <__udivdi3+0xf4>
    4128:	00c8b533          	sltu	a0,a7,a2
    412c:	00153513          	seqz	a0,a0
    4130:	00008067          	ret
    4134:	01000737          	lui	a4,0x1000
    4138:	01800793          	li	a5,24
    413c:	fce6f0e3          	bgeu	a3,a4,40fc <__udivdi3+0x2b0>
    4140:	01000793          	li	a5,16
    4144:	fb9ff06f          	j	40fc <__udivdi3+0x2b0>
    4148:	00e65533          	srl	a0,a2,a4
    414c:	00b696b3          	sll	a3,a3,a1
    4150:	00e357b3          	srl	a5,t1,a4
    4154:	00d56533          	or	a0,a0,a3
    4158:	00b31333          	sll	t1,t1,a1
    415c:	00e8d733          	srl	a4,a7,a4
    4160:	00676733          	or	a4,a4,t1
    4164:	01055313          	srli	t1,a0,0x10
    4168:	0267deb3          	divu	t4,a5,t1
    416c:	01051813          	slli	a6,a0,0x10
    4170:	01085813          	srli	a6,a6,0x10
    4174:	01075693          	srli	a3,a4,0x10
    4178:	00b61633          	sll	a2,a2,a1
    417c:	0267f7b3          	remu	a5,a5,t1
    4180:	03d80e33          	mul	t3,a6,t4
    4184:	01079793          	slli	a5,a5,0x10
    4188:	00f6e6b3          	or	a3,a3,a5
    418c:	000e8793          	mv	a5,t4
    4190:	01c6fe63          	bgeu	a3,t3,41ac <__udivdi3+0x360>
    4194:	00d506b3          	add	a3,a0,a3
    4198:	fffe8793          	addi	a5,t4,-1
    419c:	00a6e863          	bltu	a3,a0,41ac <__udivdi3+0x360>
    41a0:	01c6f663          	bgeu	a3,t3,41ac <__udivdi3+0x360>
    41a4:	ffee8793          	addi	a5,t4,-2
    41a8:	00a686b3          	add	a3,a3,a0
    41ac:	41c686b3          	sub	a3,a3,t3
    41b0:	0266de33          	divu	t3,a3,t1
    41b4:	01071713          	slli	a4,a4,0x10
    41b8:	01075713          	srli	a4,a4,0x10
    41bc:	0266f6b3          	remu	a3,a3,t1
    41c0:	03c80833          	mul	a6,a6,t3
    41c4:	01069693          	slli	a3,a3,0x10
    41c8:	00d76733          	or	a4,a4,a3
    41cc:	000e0693          	mv	a3,t3
    41d0:	01077e63          	bgeu	a4,a6,41ec <__udivdi3+0x3a0>
    41d4:	00e50733          	add	a4,a0,a4
    41d8:	fffe0693          	addi	a3,t3,-1
    41dc:	00a76863          	bltu	a4,a0,41ec <__udivdi3+0x3a0>
    41e0:	01077663          	bgeu	a4,a6,41ec <__udivdi3+0x3a0>
    41e4:	ffee0693          	addi	a3,t3,-2
    41e8:	00a70733          	add	a4,a4,a0
    41ec:	01079793          	slli	a5,a5,0x10
    41f0:	00d7e533          	or	a0,a5,a3
    41f4:	01061313          	slli	t1,a2,0x10
    41f8:	01069693          	slli	a3,a3,0x10
    41fc:	0106d693          	srli	a3,a3,0x10
    4200:	01035313          	srli	t1,t1,0x10
    4204:	01065613          	srli	a2,a2,0x10
    4208:	41070733          	sub	a4,a4,a6
    420c:	01055813          	srli	a6,a0,0x10
    4210:	02668e33          	mul	t3,a3,t1
    4214:	02680333          	mul	t1,a6,t1
    4218:	010e5793          	srli	a5,t3,0x10
    421c:	02c686b3          	mul	a3,a3,a2
    4220:	006686b3          	add	a3,a3,t1
    4224:	00d787b3          	add	a5,a5,a3
    4228:	02c80833          	mul	a6,a6,a2
    422c:	0067f663          	bgeu	a5,t1,4238 <__udivdi3+0x3ec>
    4230:	000106b7          	lui	a3,0x10
    4234:	00d80833          	add	a6,a6,a3
    4238:	0107d693          	srli	a3,a5,0x10
    423c:	010686b3          	add	a3,a3,a6
    4240:	02d76263          	bltu	a4,a3,4264 <__udivdi3+0x418>
    4244:	ced71ce3          	bne	a4,a3,3f3c <__udivdi3+0xf0>
    4248:	010e1e13          	slli	t3,t3,0x10
    424c:	01079793          	slli	a5,a5,0x10
    4250:	010e5e13          	srli	t3,t3,0x10
    4254:	00b898b3          	sll	a7,a7,a1
    4258:	01c787b3          	add	a5,a5,t3
    425c:	00000593          	li	a1,0
    4260:	cef8f0e3          	bgeu	a7,a5,3f40 <__udivdi3+0xf4>
    4264:	fff50513          	addi	a0,a0,-1 # ffffff <__stack_top+0xfeffff>
    4268:	cd5ff06f          	j	3f3c <__udivdi3+0xf0>
    426c:	00000593          	li	a1,0
    4270:	00000513          	li	a0,0
    4274:	00008067          	ret

00004278 <__adddf3>:
    4278:	00100837          	lui	a6,0x100
    427c:	fff80813          	addi	a6,a6,-1 # fffff <__stack_top+0xeffff>
    4280:	fe010113          	addi	sp,sp,-32
    4284:	00b878b3          	and	a7,a6,a1
    4288:	0145d713          	srli	a4,a1,0x14
    428c:	00d87833          	and	a6,a6,a3
    4290:	01412423          	sw	s4,8(sp)
    4294:	7ff77a13          	andi	s4,a4,2047
    4298:	00389713          	slli	a4,a7,0x3
    429c:	0146d893          	srli	a7,a3,0x14
    42a0:	01d55793          	srli	a5,a0,0x1d
    42a4:	00381813          	slli	a6,a6,0x3
    42a8:	01312623          	sw	s3,12(sp)
    42ac:	7ff8f893          	andi	a7,a7,2047
    42b0:	01f5d993          	srli	s3,a1,0x1f
    42b4:	00112e23          	sw	ra,28(sp)
    42b8:	01d65593          	srli	a1,a2,0x1d
    42bc:	00812c23          	sw	s0,24(sp)
    42c0:	00912a23          	sw	s1,20(sp)
    42c4:	01212823          	sw	s2,16(sp)
    42c8:	01512223          	sw	s5,4(sp)
    42cc:	01f6d693          	srli	a3,a3,0x1f
    42d0:	0105e5b3          	or	a1,a1,a6
    42d4:	00e7e7b3          	or	a5,a5,a4
    42d8:	00351513          	slli	a0,a0,0x3
    42dc:	00361613          	slli	a2,a2,0x3
    42e0:	411a0833          	sub	a6,s4,a7
    42e4:	7ff00313          	li	t1,2047
    42e8:	32d99863          	bne	s3,a3,4618 <__adddf3+0x3a0>
    42ec:	17005e63          	blez	a6,4468 <__adddf3+0x1f0>
    42f0:	0a089863          	bnez	a7,43a0 <__adddf3+0x128>
    42f4:	00c5e733          	or	a4,a1,a2
    42f8:	02070663          	beqz	a4,4324 <__adddf3+0xac>
    42fc:	fffa0813          	addi	a6,s4,-1
    4300:	02081063          	bnez	a6,4320 <__adddf3+0xa8>
    4304:	00c50633          	add	a2,a0,a2
    4308:	00a63733          	sltu	a4,a2,a0
    430c:	00b785b3          	add	a1,a5,a1
    4310:	00060513          	mv	a0,a2
    4314:	00e587b3          	add	a5,a1,a4
    4318:	00100a13          	li	s4,1
    431c:	0d40006f          	j	43f0 <__adddf3+0x178>
    4320:	086a1663          	bne	s4,t1,43ac <__adddf3+0x134>
    4324:	01d79693          	slli	a3,a5,0x1d
    4328:	00355513          	srli	a0,a0,0x3
    432c:	7ff00713          	li	a4,2047
    4330:	00a6e6b3          	or	a3,a3,a0
    4334:	0037d793          	srli	a5,a5,0x3
    4338:	00ea1e63          	bne	s4,a4,4354 <__adddf3+0xdc>
    433c:	00f6e6b3          	or	a3,a3,a5
    4340:	00000793          	li	a5,0
    4344:	00068863          	beqz	a3,4354 <__adddf3+0xdc>
    4348:	000807b7          	lui	a5,0x80
    434c:	00000693          	li	a3,0
    4350:	00000993          	li	s3,0
    4354:	014a1713          	slli	a4,s4,0x14
    4358:	7ff00637          	lui	a2,0x7ff00
    435c:	00c79793          	slli	a5,a5,0xc
    4360:	00c77733          	and	a4,a4,a2
    4364:	01c12083          	lw	ra,28(sp)
    4368:	01812403          	lw	s0,24(sp)
    436c:	00c7d793          	srli	a5,a5,0xc
    4370:	00f767b3          	or	a5,a4,a5
    4374:	01f99713          	slli	a4,s3,0x1f
    4378:	00e7e633          	or	a2,a5,a4
    437c:	01412483          	lw	s1,20(sp)
    4380:	01012903          	lw	s2,16(sp)
    4384:	00c12983          	lw	s3,12(sp)
    4388:	00812a03          	lw	s4,8(sp)
    438c:	00412a83          	lw	s5,4(sp)
    4390:	00068513          	mv	a0,a3
    4394:	00060593          	mv	a1,a2
    4398:	02010113          	addi	sp,sp,32
    439c:	00008067          	ret
    43a0:	f86a02e3          	beq	s4,t1,4324 <__adddf3+0xac>
    43a4:	00800737          	lui	a4,0x800
    43a8:	00e5e5b3          	or	a1,a1,a4
    43ac:	03800713          	li	a4,56
    43b0:	0b074663          	blt	a4,a6,445c <__adddf3+0x1e4>
    43b4:	01f00713          	li	a4,31
    43b8:	02000893          	li	a7,32
    43bc:	07074863          	blt	a4,a6,442c <__adddf3+0x1b4>
    43c0:	410888b3          	sub	a7,a7,a6
    43c4:	01159733          	sll	a4,a1,a7
    43c8:	010656b3          	srl	a3,a2,a6
    43cc:	011618b3          	sll	a7,a2,a7
    43d0:	00d76733          	or	a4,a4,a3
    43d4:	011038b3          	snez	a7,a7
    43d8:	01176733          	or	a4,a4,a7
    43dc:	0105d833          	srl	a6,a1,a6
    43e0:	00a70533          	add	a0,a4,a0
    43e4:	00f80833          	add	a6,a6,a5
    43e8:	00e53733          	sltu	a4,a0,a4
    43ec:	00e807b3          	add	a5,a6,a4
    43f0:	00879713          	slli	a4,a5,0x8
    43f4:	1c075e63          	bgez	a4,45d0 <__adddf3+0x358>
    43f8:	001a0a13          	addi	s4,s4,1
    43fc:	7ff00713          	li	a4,2047
    4400:	5cea0863          	beq	s4,a4,49d0 <__adddf3+0x758>
    4404:	ff800737          	lui	a4,0xff800
    4408:	fff70713          	addi	a4,a4,-1 # ff7fffff <__heap_end+0xeb7fffff>
    440c:	00e7f7b3          	and	a5,a5,a4
    4410:	00155713          	srli	a4,a0,0x1
    4414:	00157513          	andi	a0,a0,1
    4418:	00a76733          	or	a4,a4,a0
    441c:	01f79513          	slli	a0,a5,0x1f
    4420:	00e56533          	or	a0,a0,a4
    4424:	0017d793          	srli	a5,a5,0x1
    4428:	1a80006f          	j	45d0 <__adddf3+0x358>
    442c:	fe080713          	addi	a4,a6,-32
    4430:	00e5d733          	srl	a4,a1,a4
    4434:	00000693          	li	a3,0
    4438:	01180863          	beq	a6,a7,4448 <__adddf3+0x1d0>
    443c:	04000693          	li	a3,64
    4440:	410686b3          	sub	a3,a3,a6
    4444:	00d596b3          	sll	a3,a1,a3
    4448:	00c6e6b3          	or	a3,a3,a2
    444c:	00d036b3          	snez	a3,a3
    4450:	00d76733          	or	a4,a4,a3
    4454:	00000813          	li	a6,0
    4458:	f89ff06f          	j	43e0 <__adddf3+0x168>
    445c:	00c5e733          	or	a4,a1,a2
    4460:	00e03733          	snez	a4,a4
    4464:	ff1ff06f          	j	4454 <__adddf3+0x1dc>
    4468:	0c080663          	beqz	a6,4534 <__adddf3+0x2bc>
    446c:	41488733          	sub	a4,a7,s4
    4470:	020a1463          	bnez	s4,4498 <__adddf3+0x220>
    4474:	00a7e6b3          	or	a3,a5,a0
    4478:	00068863          	beqz	a3,4488 <__adddf3+0x210>
    447c:	fff70693          	addi	a3,a4,-1
    4480:	e80682e3          	beqz	a3,4304 <__adddf3+0x8c>
    4484:	02671263          	bne	a4,t1,44a8 <__adddf3+0x230>
    4488:	00058793          	mv	a5,a1
    448c:	00060513          	mv	a0,a2
    4490:	00070a13          	mv	s4,a4
    4494:	e91ff06f          	j	4324 <__adddf3+0xac>
    4498:	54688263          	beq	a7,t1,49dc <__adddf3+0x764>
    449c:	008006b7          	lui	a3,0x800
    44a0:	00d7e7b3          	or	a5,a5,a3
    44a4:	00070693          	mv	a3,a4
    44a8:	03800713          	li	a4,56
    44ac:	06d74e63          	blt	a4,a3,4528 <__adddf3+0x2b0>
    44b0:	01f00713          	li	a4,31
    44b4:	02000313          	li	t1,32
    44b8:	04d74063          	blt	a4,a3,44f8 <__adddf3+0x280>
    44bc:	40d30333          	sub	t1,t1,a3
    44c0:	00679733          	sll	a4,a5,t1
    44c4:	00d55833          	srl	a6,a0,a3
    44c8:	00651333          	sll	t1,a0,t1
    44cc:	01076733          	or	a4,a4,a6
    44d0:	00603333          	snez	t1,t1
    44d4:	00676733          	or	a4,a4,t1
    44d8:	00d7d6b3          	srl	a3,a5,a3
    44dc:	00c70633          	add	a2,a4,a2
    44e0:	00b686b3          	add	a3,a3,a1
    44e4:	00e63733          	sltu	a4,a2,a4
    44e8:	00060513          	mv	a0,a2
    44ec:	00e687b3          	add	a5,a3,a4
    44f0:	00088a13          	mv	s4,a7
    44f4:	efdff06f          	j	43f0 <__adddf3+0x178>
    44f8:	fe068713          	addi	a4,a3,-32 # 7fffe0 <__stack_top+0x7effe0>
    44fc:	00e7d733          	srl	a4,a5,a4
    4500:	00000813          	li	a6,0
    4504:	00668863          	beq	a3,t1,4514 <__adddf3+0x29c>
    4508:	04000813          	li	a6,64
    450c:	40d80833          	sub	a6,a6,a3
    4510:	01079833          	sll	a6,a5,a6
    4514:	00a86833          	or	a6,a6,a0
    4518:	01003833          	snez	a6,a6
    451c:	01076733          	or	a4,a4,a6
    4520:	00000693          	li	a3,0
    4524:	fb9ff06f          	j	44dc <__adddf3+0x264>
    4528:	00a7e733          	or	a4,a5,a0
    452c:	00e03733          	snez	a4,a4
    4530:	ff1ff06f          	j	4520 <__adddf3+0x2a8>
    4534:	001a0713          	addi	a4,s4,1
    4538:	7fe77693          	andi	a3,a4,2046
    453c:	06069663          	bnez	a3,45a8 <__adddf3+0x330>
    4540:	00a7e733          	or	a4,a5,a0
    4544:	040a1263          	bnez	s4,4588 <__adddf3+0x310>
    4548:	46070263          	beqz	a4,49ac <__adddf3+0x734>
    454c:	00c5e733          	or	a4,a1,a2
    4550:	46070263          	beqz	a4,49b4 <__adddf3+0x73c>
    4554:	00c50733          	add	a4,a0,a2
    4558:	00b785b3          	add	a1,a5,a1
    455c:	00a737b3          	sltu	a5,a4,a0
    4560:	00f587b3          	add	a5,a1,a5
    4564:	00879693          	slli	a3,a5,0x8
    4568:	00070613          	mv	a2,a4
    456c:	2c06de63          	bgez	a3,4848 <__adddf3+0x5d0>
    4570:	ff8006b7          	lui	a3,0xff800
    4574:	fff68693          	addi	a3,a3,-1 # ff7fffff <__heap_end+0xeb7fffff>
    4578:	00d7f7b3          	and	a5,a5,a3
    457c:	00070513          	mv	a0,a4
    4580:	00100a13          	li	s4,1
    4584:	da1ff06f          	j	4324 <__adddf3+0xac>
    4588:	42070a63          	beqz	a4,49bc <__adddf3+0x744>
    458c:	00c5e633          	or	a2,a1,a2
    4590:	00030a13          	mv	s4,t1
    4594:	d80608e3          	beqz	a2,4324 <__adddf3+0xac>
    4598:	00000993          	li	s3,0
    459c:	004007b7          	lui	a5,0x400
    45a0:	00000513          	li	a0,0
    45a4:	d81ff06f          	j	4324 <__adddf3+0xac>
    45a8:	42670263          	beq	a4,t1,49cc <__adddf3+0x754>
    45ac:	00c50633          	add	a2,a0,a2
    45b0:	00a63533          	sltu	a0,a2,a0
    45b4:	00b785b3          	add	a1,a5,a1
    45b8:	00a585b3          	add	a1,a1,a0
    45bc:	01f59513          	slli	a0,a1,0x1f
    45c0:	00165613          	srli	a2,a2,0x1
    45c4:	00c56533          	or	a0,a0,a2
    45c8:	0015d793          	srli	a5,a1,0x1
    45cc:	00070a13          	mv	s4,a4
    45d0:	00757713          	andi	a4,a0,7
    45d4:	02070063          	beqz	a4,45f4 <__adddf3+0x37c>
    45d8:	00f57713          	andi	a4,a0,15
    45dc:	00400693          	li	a3,4
    45e0:	00d70a63          	beq	a4,a3,45f4 <__adddf3+0x37c>
    45e4:	00d50733          	add	a4,a0,a3
    45e8:	00a736b3          	sltu	a3,a4,a0
    45ec:	00d787b3          	add	a5,a5,a3
    45f0:	00070513          	mv	a0,a4
    45f4:	00879713          	slli	a4,a5,0x8
    45f8:	d20756e3          	bgez	a4,4324 <__adddf3+0xac>
    45fc:	001a0a13          	addi	s4,s4,1
    4600:	7ff00713          	li	a4,2047
    4604:	3cea0663          	beq	s4,a4,49d0 <__adddf3+0x758>
    4608:	ff800737          	lui	a4,0xff800
    460c:	fff70713          	addi	a4,a4,-1 # ff7fffff <__heap_end+0xeb7fffff>
    4610:	00e7f7b3          	and	a5,a5,a4
    4614:	d11ff06f          	j	4324 <__adddf3+0xac>
    4618:	0f005463          	blez	a6,4700 <__adddf3+0x488>
    461c:	08089c63          	bnez	a7,46b4 <__adddf3+0x43c>
    4620:	00c5e733          	or	a4,a1,a2
    4624:	d00700e3          	beqz	a4,4324 <__adddf3+0xac>
    4628:	fffa0813          	addi	a6,s4,-1
    462c:	02081063          	bnez	a6,464c <__adddf3+0x3d4>
    4630:	40c50633          	sub	a2,a0,a2
    4634:	00c53733          	sltu	a4,a0,a2
    4638:	40b785b3          	sub	a1,a5,a1
    463c:	00060513          	mv	a0,a2
    4640:	40e587b3          	sub	a5,a1,a4
    4644:	00100a13          	li	s4,1
    4648:	0500006f          	j	4698 <__adddf3+0x420>
    464c:	cc6a0ce3          	beq	s4,t1,4324 <__adddf3+0xac>
    4650:	03800713          	li	a4,56
    4654:	0b074063          	blt	a4,a6,46f4 <__adddf3+0x47c>
    4658:	01f00713          	li	a4,31
    465c:	02000893          	li	a7,32
    4660:	07074263          	blt	a4,a6,46c4 <__adddf3+0x44c>
    4664:	410888b3          	sub	a7,a7,a6
    4668:	01159733          	sll	a4,a1,a7
    466c:	010656b3          	srl	a3,a2,a6
    4670:	011618b3          	sll	a7,a2,a7
    4674:	00d76733          	or	a4,a4,a3
    4678:	011038b3          	snez	a7,a7
    467c:	01176733          	or	a4,a4,a7
    4680:	0105d833          	srl	a6,a1,a6
    4684:	40e50733          	sub	a4,a0,a4
    4688:	00e536b3          	sltu	a3,a0,a4
    468c:	41078833          	sub	a6,a5,a6
    4690:	00070513          	mv	a0,a4
    4694:	40d807b3          	sub	a5,a6,a3
    4698:	00879713          	slli	a4,a5,0x8
    469c:	f2075ae3          	bgez	a4,45d0 <__adddf3+0x358>
    46a0:	00800937          	lui	s2,0x800
    46a4:	fff90913          	addi	s2,s2,-1 # 7fffff <__stack_top+0x7effff>
    46a8:	0127f933          	and	s2,a5,s2
    46ac:	00050a93          	mv	s5,a0
    46b0:	2180006f          	j	48c8 <__adddf3+0x650>
    46b4:	c66a08e3          	beq	s4,t1,4324 <__adddf3+0xac>
    46b8:	00800737          	lui	a4,0x800
    46bc:	00e5e5b3          	or	a1,a1,a4
    46c0:	f91ff06f          	j	4650 <__adddf3+0x3d8>
    46c4:	fe080713          	addi	a4,a6,-32
    46c8:	00e5d733          	srl	a4,a1,a4
    46cc:	00000693          	li	a3,0
    46d0:	01180863          	beq	a6,a7,46e0 <__adddf3+0x468>
    46d4:	04000693          	li	a3,64
    46d8:	410686b3          	sub	a3,a3,a6
    46dc:	00d596b3          	sll	a3,a1,a3
    46e0:	00c6e6b3          	or	a3,a3,a2
    46e4:	00d036b3          	snez	a3,a3
    46e8:	00d76733          	or	a4,a4,a3
    46ec:	00000813          	li	a6,0
    46f0:	f95ff06f          	j	4684 <__adddf3+0x40c>
    46f4:	00c5e733          	or	a4,a1,a2
    46f8:	00e03733          	snez	a4,a4
    46fc:	ff1ff06f          	j	46ec <__adddf3+0x474>
    4700:	0e080463          	beqz	a6,47e8 <__adddf3+0x570>
    4704:	41488833          	sub	a6,a7,s4
    4708:	040a1263          	bnez	s4,474c <__adddf3+0x4d4>
    470c:	00a7e733          	or	a4,a5,a0
    4710:	02070463          	beqz	a4,4738 <__adddf3+0x4c0>
    4714:	fff80713          	addi	a4,a6,-1
    4718:	00071e63          	bnez	a4,4734 <__adddf3+0x4bc>
    471c:	40a60533          	sub	a0,a2,a0
    4720:	40f585b3          	sub	a1,a1,a5
    4724:	00a63633          	sltu	a2,a2,a0
    4728:	40c587b3          	sub	a5,a1,a2
    472c:	00068993          	mv	s3,a3
    4730:	f15ff06f          	j	4644 <__adddf3+0x3cc>
    4734:	02681463          	bne	a6,t1,475c <__adddf3+0x4e4>
    4738:	00068993          	mv	s3,a3
    473c:	00058793          	mv	a5,a1
    4740:	00060513          	mv	a0,a2
    4744:	00080a13          	mv	s4,a6
    4748:	bddff06f          	j	4324 <__adddf3+0xac>
    474c:	28688663          	beq	a7,t1,49d8 <__adddf3+0x760>
    4750:	00800737          	lui	a4,0x800
    4754:	00e7e7b3          	or	a5,a5,a4
    4758:	00080713          	mv	a4,a6
    475c:	03800813          	li	a6,56
    4760:	06e84e63          	blt	a6,a4,47dc <__adddf3+0x564>
    4764:	01f00813          	li	a6,31
    4768:	02000e13          	li	t3,32
    476c:	04e84063          	blt	a6,a4,47ac <__adddf3+0x534>
    4770:	40ee0e33          	sub	t3,t3,a4
    4774:	00e55333          	srl	t1,a0,a4
    4778:	01c79833          	sll	a6,a5,t3
    477c:	01c51e33          	sll	t3,a0,t3
    4780:	00686833          	or	a6,a6,t1
    4784:	01c03e33          	snez	t3,t3
    4788:	01c86533          	or	a0,a6,t3
    478c:	00e7d733          	srl	a4,a5,a4
    4790:	40a60533          	sub	a0,a2,a0
    4794:	40e58733          	sub	a4,a1,a4
    4798:	00a63633          	sltu	a2,a2,a0
    479c:	40c707b3          	sub	a5,a4,a2
    47a0:	00088a13          	mv	s4,a7
    47a4:	00068993          	mv	s3,a3
    47a8:	ef1ff06f          	j	4698 <__adddf3+0x420>
    47ac:	fe070813          	addi	a6,a4,-32 # 7fffe0 <__stack_top+0x7effe0>
    47b0:	0107d833          	srl	a6,a5,a6
    47b4:	00000313          	li	t1,0
    47b8:	01c70863          	beq	a4,t3,47c8 <__adddf3+0x550>
    47bc:	04000313          	li	t1,64
    47c0:	40e30333          	sub	t1,t1,a4
    47c4:	00679333          	sll	t1,a5,t1
    47c8:	00a36333          	or	t1,t1,a0
    47cc:	00603333          	snez	t1,t1
    47d0:	00686533          	or	a0,a6,t1
    47d4:	00000713          	li	a4,0
    47d8:	fb9ff06f          	j	4790 <__adddf3+0x518>
    47dc:	00a7e533          	or	a0,a5,a0
    47e0:	00a03533          	snez	a0,a0
    47e4:	ff1ff06f          	j	47d4 <__adddf3+0x55c>
    47e8:	001a0713          	addi	a4,s4,1
    47ec:	7fe77713          	andi	a4,a4,2046
    47f0:	0a071463          	bnez	a4,4898 <__adddf3+0x620>
    47f4:	00a7e833          	or	a6,a5,a0
    47f8:	00c5e733          	or	a4,a1,a2
    47fc:	060a1a63          	bnez	s4,4870 <__adddf3+0x5f8>
    4800:	00081a63          	bnez	a6,4814 <__adddf3+0x59c>
    4804:	00058793          	mv	a5,a1
    4808:	02071e63          	bnez	a4,4844 <__adddf3+0x5cc>
    480c:	00000993          	li	s3,0
    4810:	1c00006f          	j	49d0 <__adddf3+0x758>
    4814:	1a070063          	beqz	a4,49b4 <__adddf3+0x73c>
    4818:	40c50833          	sub	a6,a0,a2
    481c:	010538b3          	sltu	a7,a0,a6
    4820:	40b78733          	sub	a4,a5,a1
    4824:	41170733          	sub	a4,a4,a7
    4828:	00871893          	slli	a7,a4,0x8
    482c:	0208d863          	bgez	a7,485c <__adddf3+0x5e4>
    4830:	40a60533          	sub	a0,a2,a0
    4834:	00a63733          	sltu	a4,a2,a0
    4838:	40f585b3          	sub	a1,a1,a5
    483c:	00050613          	mv	a2,a0
    4840:	40e587b3          	sub	a5,a1,a4
    4844:	00068993          	mv	s3,a3
    4848:	00c7e533          	or	a0,a5,a2
    484c:	0e050663          	beqz	a0,4938 <__adddf3+0x6c0>
    4850:	00060513          	mv	a0,a2
    4854:	00000a13          	li	s4,0
    4858:	d79ff06f          	j	45d0 <__adddf3+0x358>
    485c:	00e86533          	or	a0,a6,a4
    4860:	18050663          	beqz	a0,49ec <__adddf3+0x774>
    4864:	00070793          	mv	a5,a4
    4868:	00080613          	mv	a2,a6
    486c:	fddff06f          	j	4848 <__adddf3+0x5d0>
    4870:	00081e63          	bnez	a6,488c <__adddf3+0x614>
    4874:	00068993          	mv	s3,a3
    4878:	14071263          	bnez	a4,49bc <__adddf3+0x744>
    487c:	00000993          	li	s3,0
    4880:	004007b7          	lui	a5,0x400
    4884:	00000513          	li	a0,0
    4888:	13c0006f          	j	49c4 <__adddf3+0x74c>
    488c:	00030a13          	mv	s4,t1
    4890:	a8070ae3          	beqz	a4,4324 <__adddf3+0xac>
    4894:	d05ff06f          	j	4598 <__adddf3+0x320>
    4898:	40c50733          	sub	a4,a0,a2
    489c:	00e53833          	sltu	a6,a0,a4
    48a0:	40b78933          	sub	s2,a5,a1
    48a4:	41090933          	sub	s2,s2,a6
    48a8:	00891813          	slli	a6,s2,0x8
    48ac:	00070a93          	mv	s5,a4
    48b0:	06085e63          	bgez	a6,492c <__adddf3+0x6b4>
    48b4:	40a60ab3          	sub	s5,a2,a0
    48b8:	40f58933          	sub	s2,a1,a5
    48bc:	01563633          	sltu	a2,a2,s5
    48c0:	40c90933          	sub	s2,s2,a2
    48c4:	00068993          	mv	s3,a3
    48c8:	06090e63          	beqz	s2,4944 <__adddf3+0x6cc>
    48cc:	00090513          	mv	a0,s2
    48d0:	321010ef          	jal	63f0 <__clzsi2>
    48d4:	ff850613          	addi	a2,a0,-8
    48d8:	02000793          	li	a5,32
    48dc:	40c787b3          	sub	a5,a5,a2
    48e0:	00c91933          	sll	s2,s2,a2
    48e4:	00fad7b3          	srl	a5,s5,a5
    48e8:	0127e7b3          	or	a5,a5,s2
    48ec:	00ca9933          	sll	s2,s5,a2
    48f0:	0b464263          	blt	a2,s4,4994 <__adddf3+0x71c>
    48f4:	41460633          	sub	a2,a2,s4
    48f8:	00160593          	addi	a1,a2,1 # 7ff00001 <__heap_end+0x6bf00001>
    48fc:	01f00713          	li	a4,31
    4900:	02000693          	li	a3,32
    4904:	06b74063          	blt	a4,a1,4964 <__adddf3+0x6ec>
    4908:	40b686b3          	sub	a3,a3,a1
    490c:	00d79633          	sll	a2,a5,a3
    4910:	00b95733          	srl	a4,s2,a1
    4914:	00d916b3          	sll	a3,s2,a3
    4918:	00e66633          	or	a2,a2,a4
    491c:	00d036b3          	snez	a3,a3
    4920:	00d66633          	or	a2,a2,a3
    4924:	00b7d7b3          	srl	a5,a5,a1
    4928:	f21ff06f          	j	4848 <__adddf3+0x5d0>
    492c:	01276533          	or	a0,a4,s2
    4930:	f8051ce3          	bnez	a0,48c8 <__adddf3+0x650>
    4934:	00000993          	li	s3,0
    4938:	00000793          	li	a5,0
    493c:	00000a13          	li	s4,0
    4940:	9e5ff06f          	j	4324 <__adddf3+0xac>
    4944:	000a8513          	mv	a0,s5
    4948:	2a9010ef          	jal	63f0 <__clzsi2>
    494c:	01850613          	addi	a2,a0,24
    4950:	01f00793          	li	a5,31
    4954:	f8c7d2e3          	bge	a5,a2,48d8 <__adddf3+0x660>
    4958:	ff850793          	addi	a5,a0,-8
    495c:	00fa97b3          	sll	a5,s5,a5
    4960:	f91ff06f          	j	48f0 <__adddf3+0x678>
    4964:	fe160613          	addi	a2,a2,-31
    4968:	00c7d633          	srl	a2,a5,a2
    496c:	00000713          	li	a4,0
    4970:	00d58863          	beq	a1,a3,4980 <__adddf3+0x708>
    4974:	04000713          	li	a4,64
    4978:	40b70733          	sub	a4,a4,a1
    497c:	00e79733          	sll	a4,a5,a4
    4980:	00e96733          	or	a4,s2,a4
    4984:	00e03733          	snez	a4,a4
    4988:	00e66633          	or	a2,a2,a4
    498c:	00000793          	li	a5,0
    4990:	eb9ff06f          	j	4848 <__adddf3+0x5d0>
    4994:	ff800737          	lui	a4,0xff800
    4998:	fff70713          	addi	a4,a4,-1 # ff7fffff <__heap_end+0xeb7fffff>
    499c:	40ca0a33          	sub	s4,s4,a2
    49a0:	00e7f7b3          	and	a5,a5,a4
    49a4:	00090513          	mv	a0,s2
    49a8:	c29ff06f          	j	45d0 <__adddf3+0x358>
    49ac:	00058793          	mv	a5,a1
    49b0:	e99ff06f          	j	4848 <__adddf3+0x5d0>
    49b4:	00050613          	mv	a2,a0
    49b8:	e91ff06f          	j	4848 <__adddf3+0x5d0>
    49bc:	00058793          	mv	a5,a1
    49c0:	00060513          	mv	a0,a2
    49c4:	00030a13          	mv	s4,t1
    49c8:	95dff06f          	j	4324 <__adddf3+0xac>
    49cc:	00070a13          	mv	s4,a4
    49d0:	00000793          	li	a5,0
    49d4:	bcdff06f          	j	45a0 <__adddf3+0x328>
    49d8:	00068993          	mv	s3,a3
    49dc:	00058793          	mv	a5,a1
    49e0:	00060513          	mv	a0,a2
    49e4:	00088a13          	mv	s4,a7
    49e8:	93dff06f          	j	4324 <__adddf3+0xac>
    49ec:	00000993          	li	s3,0
    49f0:	00000793          	li	a5,0
    49f4:	931ff06f          	j	4324 <__adddf3+0xac>

000049f8 <__divdf3>:
    49f8:	fd010113          	addi	sp,sp,-48
    49fc:	01812423          	sw	s8,8(sp)
    4a00:	0145dc13          	srli	s8,a1,0x14
    4a04:	02812423          	sw	s0,40(sp)
    4a08:	01412c23          	sw	s4,24(sp)
    4a0c:	01512a23          	sw	s5,20(sp)
    4a10:	01712623          	sw	s7,12(sp)
    4a14:	01912223          	sw	s9,4(sp)
    4a18:	00c59413          	slli	s0,a1,0xc
    4a1c:	02112623          	sw	ra,44(sp)
    4a20:	02912223          	sw	s1,36(sp)
    4a24:	03212023          	sw	s2,32(sp)
    4a28:	01312e23          	sw	s3,28(sp)
    4a2c:	01612823          	sw	s6,16(sp)
    4a30:	7ffc7713          	andi	a4,s8,2047
    4a34:	00050b93          	mv	s7,a0
    4a38:	00060c93          	mv	s9,a2
    4a3c:	00068a93          	mv	s5,a3
    4a40:	00c45413          	srli	s0,s0,0xc
    4a44:	01f5da13          	srli	s4,a1,0x1f
    4a48:	0a070063          	beqz	a4,4ae8 <__divdf3+0xf0>
    4a4c:	7ff00793          	li	a5,2047
    4a50:	10f70063          	beq	a4,a5,4b50 <__divdf3+0x158>
    4a54:	01d55b13          	srli	s6,a0,0x1d
    4a58:	00341413          	slli	s0,s0,0x3
    4a5c:	008b6b33          	or	s6,s6,s0
    4a60:	008007b7          	lui	a5,0x800
    4a64:	00fb6b33          	or	s6,s6,a5
    4a68:	00351493          	slli	s1,a0,0x3
    4a6c:	c0170c13          	addi	s8,a4,-1023
    4a70:	00000b93          	li	s7,0
    4a74:	014ad693          	srli	a3,s5,0x14
    4a78:	00ca9413          	slli	s0,s5,0xc
    4a7c:	7ff6f693          	andi	a3,a3,2047
    4a80:	00c45413          	srli	s0,s0,0xc
    4a84:	01fada93          	srli	s5,s5,0x1f
    4a88:	10068263          	beqz	a3,4b8c <__divdf3+0x194>
    4a8c:	7ff00793          	li	a5,2047
    4a90:	16f68663          	beq	a3,a5,4bfc <__divdf3+0x204>
    4a94:	00341413          	slli	s0,s0,0x3
    4a98:	01dcd793          	srli	a5,s9,0x1d
    4a9c:	0087e7b3          	or	a5,a5,s0
    4aa0:	00800437          	lui	s0,0x800
    4aa4:	0087e433          	or	s0,a5,s0
    4aa8:	003c9f13          	slli	t5,s9,0x3
    4aac:	c0168693          	addi	a3,a3,-1023
    4ab0:	00000593          	li	a1,0
    4ab4:	002b9793          	slli	a5,s7,0x2
    4ab8:	00b7e7b3          	or	a5,a5,a1
    4abc:	40dc0733          	sub	a4,s8,a3
    4ac0:	fff78793          	addi	a5,a5,-1 # 7fffff <__stack_top+0x7effff>
    4ac4:	00e00693          	li	a3,14
    4ac8:	015a4633          	xor	a2,s4,s5
    4acc:	16f6e063          	bltu	a3,a5,4c2c <__divdf3+0x234>
    4ad0:	000076b7          	lui	a3,0x7
    4ad4:	00279793          	slli	a5,a5,0x2
    4ad8:	b6868693          	addi	a3,a3,-1176 # 6b68 <__clzsi2+0x778>
    4adc:	00d787b3          	add	a5,a5,a3
    4ae0:	0007a783          	lw	a5,0(a5)
    4ae4:	00078067          	jr	a5
    4ae8:	00a46b33          	or	s6,s0,a0
    4aec:	060b0e63          	beqz	s6,4b68 <__divdf3+0x170>
    4af0:	02040e63          	beqz	s0,4b2c <__divdf3+0x134>
    4af4:	00040513          	mv	a0,s0
    4af8:	0f9010ef          	jal	63f0 <__clzsi2>
    4afc:	ff550793          	addi	a5,a0,-11
    4b00:	01d00b13          	li	s6,29
    4b04:	ff850713          	addi	a4,a0,-8
    4b08:	40fb0b33          	sub	s6,s6,a5
    4b0c:	00e41433          	sll	s0,s0,a4
    4b10:	016bdb33          	srl	s6,s7,s6
    4b14:	008b6b33          	or	s6,s6,s0
    4b18:	00eb9433          	sll	s0,s7,a4
    4b1c:	c0d00713          	li	a4,-1011
    4b20:	40a70c33          	sub	s8,a4,a0
    4b24:	00040493          	mv	s1,s0
    4b28:	f49ff06f          	j	4a70 <__divdf3+0x78>
    4b2c:	0c5010ef          	jal	63f0 <__clzsi2>
    4b30:	00050b13          	mv	s6,a0
    4b34:	015b0793          	addi	a5,s6,21
    4b38:	01c00713          	li	a4,28
    4b3c:	02050513          	addi	a0,a0,32
    4b40:	fcf750e3          	bge	a4,a5,4b00 <__divdf3+0x108>
    4b44:	ff8b0b13          	addi	s6,s6,-8
    4b48:	016b9b33          	sll	s6,s7,s6
    4b4c:	fd1ff06f          	j	4b1c <__divdf3+0x124>
    4b50:	00a46b33          	or	s6,s0,a0
    4b54:	020b1263          	bnez	s6,4b78 <__divdf3+0x180>
    4b58:	00000493          	li	s1,0
    4b5c:	00070c13          	mv	s8,a4
    4b60:	00200b93          	li	s7,2
    4b64:	f11ff06f          	j	4a74 <__divdf3+0x7c>
    4b68:	00000493          	li	s1,0
    4b6c:	00000c13          	li	s8,0
    4b70:	00100b93          	li	s7,1
    4b74:	f01ff06f          	j	4a74 <__divdf3+0x7c>
    4b78:	00050493          	mv	s1,a0
    4b7c:	00040b13          	mv	s6,s0
    4b80:	00070c13          	mv	s8,a4
    4b84:	00300b93          	li	s7,3
    4b88:	eedff06f          	j	4a74 <__divdf3+0x7c>
    4b8c:	01946f33          	or	t5,s0,s9
    4b90:	080f0063          	beqz	t5,4c10 <__divdf3+0x218>
    4b94:	04040063          	beqz	s0,4bd4 <__divdf3+0x1dc>
    4b98:	00040513          	mv	a0,s0
    4b9c:	055010ef          	jal	63f0 <__clzsi2>
    4ba0:	ff550713          	addi	a4,a0,-11
    4ba4:	01d00793          	li	a5,29
    4ba8:	ff850693          	addi	a3,a0,-8
    4bac:	40e787b3          	sub	a5,a5,a4
    4bb0:	00d41433          	sll	s0,s0,a3
    4bb4:	00fcd7b3          	srl	a5,s9,a5
    4bb8:	0087e7b3          	or	a5,a5,s0
    4bbc:	00dc9433          	sll	s0,s9,a3
    4bc0:	c0d00693          	li	a3,-1011
    4bc4:	00040f13          	mv	t5,s0
    4bc8:	40a686b3          	sub	a3,a3,a0
    4bcc:	00078413          	mv	s0,a5
    4bd0:	ee1ff06f          	j	4ab0 <__divdf3+0xb8>
    4bd4:	000c8513          	mv	a0,s9
    4bd8:	019010ef          	jal	63f0 <__clzsi2>
    4bdc:	00050793          	mv	a5,a0
    4be0:	01578713          	addi	a4,a5,21
    4be4:	01c00693          	li	a3,28
    4be8:	02050513          	addi	a0,a0,32
    4bec:	fae6dce3          	bge	a3,a4,4ba4 <__divdf3+0x1ac>
    4bf0:	ff878793          	addi	a5,a5,-8
    4bf4:	00fc97b3          	sll	a5,s9,a5
    4bf8:	fc9ff06f          	j	4bc0 <__divdf3+0x1c8>
    4bfc:	01946f33          	or	t5,s0,s9
    4c00:	020f1063          	bnez	t5,4c20 <__divdf3+0x228>
    4c04:	00000413          	li	s0,0
    4c08:	00200593          	li	a1,2
    4c0c:	ea9ff06f          	j	4ab4 <__divdf3+0xbc>
    4c10:	00000413          	li	s0,0
    4c14:	00000693          	li	a3,0
    4c18:	00100593          	li	a1,1
    4c1c:	e99ff06f          	j	4ab4 <__divdf3+0xbc>
    4c20:	000c8f13          	mv	t5,s9
    4c24:	00300593          	li	a1,3
    4c28:	e8dff06f          	j	4ab4 <__divdf3+0xbc>
    4c2c:	01646663          	bltu	s0,s6,4c38 <__divdf3+0x240>
    4c30:	348b1a63          	bne	s6,s0,4f84 <__divdf3+0x58c>
    4c34:	35e4e863          	bltu	s1,t5,4f84 <__divdf3+0x58c>
    4c38:	01fb1693          	slli	a3,s6,0x1f
    4c3c:	0014d793          	srli	a5,s1,0x1
    4c40:	01f49313          	slli	t1,s1,0x1f
    4c44:	001b5b13          	srli	s6,s6,0x1
    4c48:	00f6e4b3          	or	s1,a3,a5
    4c4c:	00841813          	slli	a6,s0,0x8
    4c50:	018f5693          	srli	a3,t5,0x18
    4c54:	0106e6b3          	or	a3,a3,a6
    4c58:	01085813          	srli	a6,a6,0x10
    4c5c:	030b5eb3          	divu	t4,s6,a6
    4c60:	01069893          	slli	a7,a3,0x10
    4c64:	0108d893          	srli	a7,a7,0x10
    4c68:	0104d793          	srli	a5,s1,0x10
    4c6c:	008f1593          	slli	a1,t5,0x8
    4c70:	030b7b33          	remu	s6,s6,a6
    4c74:	000e8513          	mv	a0,t4
    4c78:	03d88e33          	mul	t3,a7,t4
    4c7c:	010b1b13          	slli	s6,s6,0x10
    4c80:	0167e7b3          	or	a5,a5,s6
    4c84:	01c7fe63          	bgeu	a5,t3,4ca0 <__divdf3+0x2a8>
    4c88:	00f687b3          	add	a5,a3,a5
    4c8c:	fffe8513          	addi	a0,t4,-1
    4c90:	00d7e863          	bltu	a5,a3,4ca0 <__divdf3+0x2a8>
    4c94:	01c7f663          	bgeu	a5,t3,4ca0 <__divdf3+0x2a8>
    4c98:	ffee8513          	addi	a0,t4,-2
    4c9c:	00d787b3          	add	a5,a5,a3
    4ca0:	41c787b3          	sub	a5,a5,t3
    4ca4:	0307deb3          	divu	t4,a5,a6
    4ca8:	01049493          	slli	s1,s1,0x10
    4cac:	0104d493          	srli	s1,s1,0x10
    4cb0:	0307f7b3          	remu	a5,a5,a6
    4cb4:	03d88e33          	mul	t3,a7,t4
    4cb8:	01079793          	slli	a5,a5,0x10
    4cbc:	00f4e4b3          	or	s1,s1,a5
    4cc0:	000e8793          	mv	a5,t4
    4cc4:	01c4fe63          	bgeu	s1,t3,4ce0 <__divdf3+0x2e8>
    4cc8:	009684b3          	add	s1,a3,s1
    4ccc:	fffe8793          	addi	a5,t4,-1
    4cd0:	00d4e863          	bltu	s1,a3,4ce0 <__divdf3+0x2e8>
    4cd4:	01c4f663          	bgeu	s1,t3,4ce0 <__divdf3+0x2e8>
    4cd8:	ffee8793          	addi	a5,t4,-2
    4cdc:	00d484b3          	add	s1,s1,a3
    4ce0:	01051513          	slli	a0,a0,0x10
    4ce4:	00f56533          	or	a0,a0,a5
    4ce8:	01051793          	slli	a5,a0,0x10
    4cec:	01059e93          	slli	t4,a1,0x10
    4cf0:	01055f93          	srli	t6,a0,0x10
    4cf4:	0107d793          	srli	a5,a5,0x10
    4cf8:	010ede93          	srli	t4,t4,0x10
    4cfc:	41c484b3          	sub	s1,s1,t3
    4d00:	0105de13          	srli	t3,a1,0x10
    4d04:	03d782b3          	mul	t0,a5,t4
    4d08:	03df83b3          	mul	t2,t6,t4
    4d0c:	02fe07b3          	mul	a5,t3,a5
    4d10:	00778f33          	add	t5,a5,t2
    4d14:	0102d793          	srli	a5,t0,0x10
    4d18:	01e787b3          	add	a5,a5,t5
    4d1c:	03cf8fb3          	mul	t6,t6,t3
    4d20:	0077f663          	bgeu	a5,t2,4d2c <__divdf3+0x334>
    4d24:	00010f37          	lui	t5,0x10
    4d28:	01ef8fb3          	add	t6,t6,t5
    4d2c:	0107df13          	srli	t5,a5,0x10
    4d30:	01029293          	slli	t0,t0,0x10
    4d34:	01079793          	slli	a5,a5,0x10
    4d38:	0102d293          	srli	t0,t0,0x10
    4d3c:	01ff0f33          	add	t5,t5,t6
    4d40:	005787b3          	add	a5,a5,t0
    4d44:	01e4e863          	bltu	s1,t5,4d54 <__divdf3+0x35c>
    4d48:	00050413          	mv	s0,a0
    4d4c:	05e49863          	bne	s1,t5,4d9c <__divdf3+0x3a4>
    4d50:	04f37663          	bgeu	t1,a5,4d9c <__divdf3+0x3a4>
    4d54:	00b30fb3          	add	t6,t1,a1
    4d58:	006fb2b3          	sltu	t0,t6,t1
    4d5c:	00d283b3          	add	t2,t0,a3
    4d60:	007484b3          	add	s1,s1,t2
    4d64:	fff50413          	addi	s0,a0,-1
    4d68:	000f8313          	mv	t1,t6
    4d6c:	0096e663          	bltu	a3,s1,4d78 <__divdf3+0x380>
    4d70:	02969663          	bne	a3,s1,4d9c <__divdf3+0x3a4>
    4d74:	02029463          	bnez	t0,4d9c <__divdf3+0x3a4>
    4d78:	01e4e663          	bltu	s1,t5,4d84 <__divdf3+0x38c>
    4d7c:	029f1063          	bne	t5,s1,4d9c <__divdf3+0x3a4>
    4d80:	00fffe63          	bgeu	t6,a5,4d9c <__divdf3+0x3a4>
    4d84:	01f58fb3          	add	t6,a1,t6
    4d88:	ffe50413          	addi	s0,a0,-2
    4d8c:	00bfb533          	sltu	a0,t6,a1
    4d90:	00d50533          	add	a0,a0,a3
    4d94:	000f8313          	mv	t1,t6
    4d98:	00a484b3          	add	s1,s1,a0
    4d9c:	40f30533          	sub	a0,t1,a5
    4da0:	41e484b3          	sub	s1,s1,t5
    4da4:	00a33333          	sltu	t1,t1,a0
    4da8:	406484b3          	sub	s1,s1,t1
    4dac:	fff00f13          	li	t5,-1
    4db0:	12968263          	beq	a3,s1,4ed4 <__divdf3+0x4dc>
    4db4:	0304dfb3          	divu	t6,s1,a6
    4db8:	01055793          	srli	a5,a0,0x10
    4dbc:	0304f4b3          	remu	s1,s1,a6
    4dc0:	000f8313          	mv	t1,t6
    4dc4:	03f88f33          	mul	t5,a7,t6
    4dc8:	01049493          	slli	s1,s1,0x10
    4dcc:	0097e7b3          	or	a5,a5,s1
    4dd0:	01e7fe63          	bgeu	a5,t5,4dec <__divdf3+0x3f4>
    4dd4:	00f687b3          	add	a5,a3,a5
    4dd8:	ffff8313          	addi	t1,t6,-1
    4ddc:	00d7e863          	bltu	a5,a3,4dec <__divdf3+0x3f4>
    4de0:	01e7f663          	bgeu	a5,t5,4dec <__divdf3+0x3f4>
    4de4:	ffef8313          	addi	t1,t6,-2
    4de8:	00d787b3          	add	a5,a5,a3
    4dec:	41e787b3          	sub	a5,a5,t5
    4df0:	0307df33          	divu	t5,a5,a6
    4df4:	01051513          	slli	a0,a0,0x10
    4df8:	01055513          	srli	a0,a0,0x10
    4dfc:	0307f7b3          	remu	a5,a5,a6
    4e00:	000f0813          	mv	a6,t5
    4e04:	03e888b3          	mul	a7,a7,t5
    4e08:	01079793          	slli	a5,a5,0x10
    4e0c:	00f567b3          	or	a5,a0,a5
    4e10:	0117fe63          	bgeu	a5,a7,4e2c <__divdf3+0x434>
    4e14:	00f687b3          	add	a5,a3,a5
    4e18:	ffff0813          	addi	a6,t5,-1 # ffff <__bss_end+0x5267>
    4e1c:	00d7e863          	bltu	a5,a3,4e2c <__divdf3+0x434>
    4e20:	0117f663          	bgeu	a5,a7,4e2c <__divdf3+0x434>
    4e24:	ffef0813          	addi	a6,t5,-2
    4e28:	00d787b3          	add	a5,a5,a3
    4e2c:	01031513          	slli	a0,t1,0x10
    4e30:	01056533          	or	a0,a0,a6
    4e34:	01051813          	slli	a6,a0,0x10
    4e38:	01085813          	srli	a6,a6,0x10
    4e3c:	01055313          	srli	t1,a0,0x10
    4e40:	030e8f33          	mul	t5,t4,a6
    4e44:	411787b3          	sub	a5,a5,a7
    4e48:	03d30eb3          	mul	t4,t1,t4
    4e4c:	026e0333          	mul	t1,t3,t1
    4e50:	030e0e33          	mul	t3,t3,a6
    4e54:	010f5813          	srli	a6,t5,0x10
    4e58:	01de0e33          	add	t3,t3,t4
    4e5c:	01c80833          	add	a6,a6,t3
    4e60:	01d87663          	bgeu	a6,t4,4e6c <__divdf3+0x474>
    4e64:	000108b7          	lui	a7,0x10
    4e68:	01130333          	add	t1,t1,a7
    4e6c:	01085893          	srli	a7,a6,0x10
    4e70:	010f1f13          	slli	t5,t5,0x10
    4e74:	01081813          	slli	a6,a6,0x10
    4e78:	010f5f13          	srli	t5,t5,0x10
    4e7c:	006888b3          	add	a7,a7,t1
    4e80:	01e80833          	add	a6,a6,t5
    4e84:	0117e863          	bltu	a5,a7,4e94 <__divdf3+0x49c>
    4e88:	00050f13          	mv	t5,a0
    4e8c:	05179263          	bne	a5,a7,4ed0 <__divdf3+0x4d8>
    4e90:	04080263          	beqz	a6,4ed4 <__divdf3+0x4dc>
    4e94:	00f687b3          	add	a5,a3,a5
    4e98:	fff50f13          	addi	t5,a0,-1
    4e9c:	00078313          	mv	t1,a5
    4ea0:	02d7e463          	bltu	a5,a3,4ec8 <__divdf3+0x4d0>
    4ea4:	0117e663          	bltu	a5,a7,4eb0 <__divdf3+0x4b8>
    4ea8:	03179463          	bne	a5,a7,4ed0 <__divdf3+0x4d8>
    4eac:	0305f063          	bgeu	a1,a6,4ecc <__divdf3+0x4d4>
    4eb0:	ffe50f13          	addi	t5,a0,-2
    4eb4:	00159513          	slli	a0,a1,0x1
    4eb8:	00b53333          	sltu	t1,a0,a1
    4ebc:	00d30333          	add	t1,t1,a3
    4ec0:	00678333          	add	t1,a5,t1
    4ec4:	00050593          	mv	a1,a0
    4ec8:	01131463          	bne	t1,a7,4ed0 <__divdf3+0x4d8>
    4ecc:	00b80463          	beq	a6,a1,4ed4 <__divdf3+0x4dc>
    4ed0:	001f6f13          	ori	t5,t5,1
    4ed4:	3ff70793          	addi	a5,a4,1023
    4ed8:	0ef05a63          	blez	a5,4fcc <__divdf3+0x5d4>
    4edc:	007f7693          	andi	a3,t5,7
    4ee0:	02068063          	beqz	a3,4f00 <__divdf3+0x508>
    4ee4:	00ff7693          	andi	a3,t5,15
    4ee8:	00400593          	li	a1,4
    4eec:	00b68a63          	beq	a3,a1,4f00 <__divdf3+0x508>
    4ef0:	00bf06b3          	add	a3,t5,a1
    4ef4:	01e6b5b3          	sltu	a1,a3,t5
    4ef8:	00b40433          	add	s0,s0,a1
    4efc:	00068f13          	mv	t5,a3
    4f00:	00741693          	slli	a3,s0,0x7
    4f04:	0006da63          	bgez	a3,4f18 <__divdf3+0x520>
    4f08:	ff0007b7          	lui	a5,0xff000
    4f0c:	fff78793          	addi	a5,a5,-1 # feffffff <__heap_end+0xeaffffff>
    4f10:	00f47433          	and	s0,s0,a5
    4f14:	40070793          	addi	a5,a4,1024
    4f18:	7fe00713          	li	a4,2046
    4f1c:	16f74c63          	blt	a4,a5,5094 <__divdf3+0x69c>
    4f20:	01d41713          	slli	a4,s0,0x1d
    4f24:	003f5f13          	srli	t5,t5,0x3
    4f28:	01e76733          	or	a4,a4,t5
    4f2c:	00345413          	srli	s0,s0,0x3
    4f30:	00c41413          	slli	s0,s0,0xc
    4f34:	00c45413          	srli	s0,s0,0xc
    4f38:	01479793          	slli	a5,a5,0x14
    4f3c:	02c12083          	lw	ra,44(sp)
    4f40:	0087e7b3          	or	a5,a5,s0
    4f44:	02812403          	lw	s0,40(sp)
    4f48:	01f61613          	slli	a2,a2,0x1f
    4f4c:	00c7e6b3          	or	a3,a5,a2
    4f50:	02412483          	lw	s1,36(sp)
    4f54:	02012903          	lw	s2,32(sp)
    4f58:	01c12983          	lw	s3,28(sp)
    4f5c:	01812a03          	lw	s4,24(sp)
    4f60:	01412a83          	lw	s5,20(sp)
    4f64:	01012b03          	lw	s6,16(sp)
    4f68:	00c12b83          	lw	s7,12(sp)
    4f6c:	00812c03          	lw	s8,8(sp)
    4f70:	00412c83          	lw	s9,4(sp)
    4f74:	00070513          	mv	a0,a4
    4f78:	00068593          	mv	a1,a3
    4f7c:	03010113          	addi	sp,sp,48
    4f80:	00008067          	ret
    4f84:	fff70713          	addi	a4,a4,-1
    4f88:	00000313          	li	t1,0
    4f8c:	cc1ff06f          	j	4c4c <__divdf3+0x254>
    4f90:	000a8613          	mv	a2,s5
    4f94:	00058b93          	mv	s7,a1
    4f98:	00200793          	li	a5,2
    4f9c:	0efb8c63          	beq	s7,a5,5094 <__divdf3+0x69c>
    4fa0:	00300793          	li	a5,3
    4fa4:	0cfb8e63          	beq	s7,a5,5080 <__divdf3+0x688>
    4fa8:	00100793          	li	a5,1
    4fac:	f2fb94e3          	bne	s7,a5,4ed4 <__divdf3+0x4dc>
    4fb0:	00000413          	li	s0,0
    4fb4:	00000713          	li	a4,0
    4fb8:	08c0006f          	j	5044 <__divdf3+0x64c>
    4fbc:	000a0613          	mv	a2,s4
    4fc0:	000b0413          	mv	s0,s6
    4fc4:	00048f13          	mv	t5,s1
    4fc8:	fd1ff06f          	j	4f98 <__divdf3+0x5a0>
    4fcc:	00100593          	li	a1,1
    4fd0:	00078c63          	beqz	a5,4fe8 <__divdf3+0x5f0>
    4fd4:	40f585b3          	sub	a1,a1,a5
    4fd8:	03800693          	li	a3,56
    4fdc:	fcb6cae3          	blt	a3,a1,4fb0 <__divdf3+0x5b8>
    4fe0:	01f00693          	li	a3,31
    4fe4:	06b6c463          	blt	a3,a1,504c <__divdf3+0x654>
    4fe8:	41e70713          	addi	a4,a4,1054
    4fec:	00bf57b3          	srl	a5,t5,a1
    4ff0:	00ef1f33          	sll	t5,t5,a4
    4ff4:	01e03f33          	snez	t5,t5
    4ff8:	00e41733          	sll	a4,s0,a4
    4ffc:	00ef6f33          	or	t5,t5,a4
    5000:	01e7e7b3          	or	a5,a5,t5
    5004:	00b45433          	srl	s0,s0,a1
    5008:	0077f713          	andi	a4,a5,7
    500c:	02070063          	beqz	a4,502c <__divdf3+0x634>
    5010:	00f7f713          	andi	a4,a5,15
    5014:	00400693          	li	a3,4
    5018:	00d70a63          	beq	a4,a3,502c <__divdf3+0x634>
    501c:	00d78733          	add	a4,a5,a3
    5020:	00f736b3          	sltu	a3,a4,a5
    5024:	00d40433          	add	s0,s0,a3
    5028:	00070793          	mv	a5,a4
    502c:	00841713          	slli	a4,s0,0x8
    5030:	06074a63          	bltz	a4,50a4 <__divdf3+0x6ac>
    5034:	01d41713          	slli	a4,s0,0x1d
    5038:	0037d793          	srli	a5,a5,0x3
    503c:	00f76733          	or	a4,a4,a5
    5040:	00345413          	srli	s0,s0,0x3
    5044:	00000793          	li	a5,0
    5048:	ee9ff06f          	j	4f30 <__divdf3+0x538>
    504c:	fe100693          	li	a3,-31
    5050:	40f687b3          	sub	a5,a3,a5
    5054:	02000513          	li	a0,32
    5058:	00f457b3          	srl	a5,s0,a5
    505c:	00000693          	li	a3,0
    5060:	00a58663          	beq	a1,a0,506c <__divdf3+0x674>
    5064:	43e70713          	addi	a4,a4,1086
    5068:	00e416b3          	sll	a3,s0,a4
    506c:	01e6e6b3          	or	a3,a3,t5
    5070:	00d036b3          	snez	a3,a3
    5074:	00d7e7b3          	or	a5,a5,a3
    5078:	00000413          	li	s0,0
    507c:	f8dff06f          	j	5008 <__divdf3+0x610>
    5080:	00080437          	lui	s0,0x80
    5084:	00000713          	li	a4,0
    5088:	7ff00793          	li	a5,2047
    508c:	00000613          	li	a2,0
    5090:	ea1ff06f          	j	4f30 <__divdf3+0x538>
    5094:	00000413          	li	s0,0
    5098:	00000713          	li	a4,0
    509c:	7ff00793          	li	a5,2047
    50a0:	e91ff06f          	j	4f30 <__divdf3+0x538>
    50a4:	00000413          	li	s0,0
    50a8:	00000713          	li	a4,0
    50ac:	00100793          	li	a5,1
    50b0:	e81ff06f          	j	4f30 <__divdf3+0x538>

000050b4 <__fixdfsi>:
    50b4:	0145d713          	srli	a4,a1,0x14
    50b8:	001006b7          	lui	a3,0x100
    50bc:	fff68793          	addi	a5,a3,-1 # fffff <__stack_top+0xeffff>
    50c0:	7ff77713          	andi	a4,a4,2047
    50c4:	3fe00613          	li	a2,1022
    50c8:	00b7f7b3          	and	a5,a5,a1
    50cc:	01f5d593          	srli	a1,a1,0x1f
    50d0:	04e65e63          	bge	a2,a4,512c <__fixdfsi+0x78>
    50d4:	41d00613          	li	a2,1053
    50d8:	00e65a63          	bge	a2,a4,50ec <__fixdfsi+0x38>
    50dc:	80000537          	lui	a0,0x80000
    50e0:	fff50513          	addi	a0,a0,-1 # 7fffffff <__heap_end+0x6bffffff>
    50e4:	00a58533          	add	a0,a1,a0
    50e8:	00008067          	ret
    50ec:	00d7e7b3          	or	a5,a5,a3
    50f0:	43300693          	li	a3,1075
    50f4:	40e686b3          	sub	a3,a3,a4
    50f8:	01f00613          	li	a2,31
    50fc:	02d64063          	blt	a2,a3,511c <__fixdfsi+0x68>
    5100:	bed70713          	addi	a4,a4,-1043
    5104:	00e797b3          	sll	a5,a5,a4
    5108:	00d55533          	srl	a0,a0,a3
    510c:	00a7e533          	or	a0,a5,a0
    5110:	02058063          	beqz	a1,5130 <__fixdfsi+0x7c>
    5114:	40a00533          	neg	a0,a0
    5118:	00008067          	ret
    511c:	41300693          	li	a3,1043
    5120:	40e68733          	sub	a4,a3,a4
    5124:	00e7d533          	srl	a0,a5,a4
    5128:	fe9ff06f          	j	5110 <__fixdfsi+0x5c>
    512c:	00000513          	li	a0,0
    5130:	00008067          	ret

00005134 <__addsf3>:
    5134:	ff010113          	addi	sp,sp,-16
    5138:	00800737          	lui	a4,0x800
    513c:	fff70713          	addi	a4,a4,-1 # 7fffff <__stack_top+0x7effff>
    5140:	0175d613          	srli	a2,a1,0x17
    5144:	00812423          	sw	s0,8(sp)
    5148:	01755413          	srli	s0,a0,0x17
    514c:	00a777b3          	and	a5,a4,a0
    5150:	00912223          	sw	s1,4(sp)
    5154:	00b77733          	and	a4,a4,a1
    5158:	0ff47413          	zext.b	s0,s0
    515c:	0ff67613          	zext.b	a2,a2
    5160:	00112623          	sw	ra,12(sp)
    5164:	01212023          	sw	s2,0(sp)
    5168:	01f55493          	srli	s1,a0,0x1f
    516c:	01f5d593          	srli	a1,a1,0x1f
    5170:	00379793          	slli	a5,a5,0x3
    5174:	00371713          	slli	a4,a4,0x3
    5178:	40c406b3          	sub	a3,s0,a2
    517c:	1cb49e63          	bne	s1,a1,5358 <__addsf3+0x224>
    5180:	08d05e63          	blez	a3,521c <__addsf3+0xe8>
    5184:	0ff00593          	li	a1,255
    5188:	02061663          	bnez	a2,51b4 <__addsf3+0x80>
    518c:	00070e63          	beqz	a4,51a8 <__addsf3+0x74>
    5190:	fff68613          	addi	a2,a3,-1
    5194:	00061863          	bnez	a2,51a4 <__addsf3+0x70>
    5198:	00e787b3          	add	a5,a5,a4
    519c:	00100413          	li	s0,1
    51a0:	04c0006f          	j	51ec <__addsf3+0xb8>
    51a4:	02b69063          	bne	a3,a1,51c4 <__addsf3+0x90>
    51a8:	00068413          	mv	s0,a3
    51ac:	00078713          	mv	a4,a5
    51b0:	2c40006f          	j	5474 <__addsf3+0x340>
    51b4:	feb40ce3          	beq	s0,a1,51ac <__addsf3+0x78>
    51b8:	04000637          	lui	a2,0x4000
    51bc:	00c76733          	or	a4,a4,a2
    51c0:	00068613          	mv	a2,a3
    51c4:	01b00593          	li	a1,27
    51c8:	00100693          	li	a3,1
    51cc:	00c5ce63          	blt	a1,a2,51e8 <__addsf3+0xb4>
    51d0:	02000693          	li	a3,32
    51d4:	40c686b3          	sub	a3,a3,a2
    51d8:	00c755b3          	srl	a1,a4,a2
    51dc:	00d71733          	sll	a4,a4,a3
    51e0:	00e03733          	snez	a4,a4
    51e4:	00e5e6b3          	or	a3,a1,a4
    51e8:	00d787b3          	add	a5,a5,a3
    51ec:	00579713          	slli	a4,a5,0x5
    51f0:	12075463          	bgez	a4,5318 <__addsf3+0x1e4>
    51f4:	00140413          	addi	s0,s0,1 # 80001 <__stack_top+0x70001>
    51f8:	0ff00713          	li	a4,255
    51fc:	36e40063          	beq	s0,a4,555c <__addsf3+0x428>
    5200:	7e000737          	lui	a4,0x7e000
    5204:	0017f693          	andi	a3,a5,1
    5208:	fff70713          	addi	a4,a4,-1 # 7dffffff <__heap_end+0x69ffffff>
    520c:	0017d793          	srli	a5,a5,0x1
    5210:	00e7f7b3          	and	a5,a5,a4
    5214:	00d7e7b3          	or	a5,a5,a3
    5218:	1000006f          	j	5318 <__addsf3+0x1e4>
    521c:	06068463          	beqz	a3,5284 <__addsf3+0x150>
    5220:	408606b3          	sub	a3,a2,s0
    5224:	0ff00513          	li	a0,255
    5228:	00041e63          	bnez	s0,5244 <__addsf3+0x110>
    522c:	32078263          	beqz	a5,5550 <__addsf3+0x41c>
    5230:	fff68593          	addi	a1,a3,-1
    5234:	f60582e3          	beqz	a1,5198 <__addsf3+0x64>
    5238:	00a69e63          	bne	a3,a0,5254 <__addsf3+0x120>
    523c:	0ff00413          	li	s0,255
    5240:	2340006f          	j	5474 <__addsf3+0x340>
    5244:	fea60ce3          	beq	a2,a0,523c <__addsf3+0x108>
    5248:	040005b7          	lui	a1,0x4000
    524c:	00b7e7b3          	or	a5,a5,a1
    5250:	00068593          	mv	a1,a3
    5254:	01b00513          	li	a0,27
    5258:	00100693          	li	a3,1
    525c:	00b54e63          	blt	a0,a1,5278 <__addsf3+0x144>
    5260:	02000693          	li	a3,32
    5264:	40b686b3          	sub	a3,a3,a1
    5268:	00b7d533          	srl	a0,a5,a1
    526c:	00d797b3          	sll	a5,a5,a3
    5270:	00f037b3          	snez	a5,a5
    5274:	00f566b3          	or	a3,a0,a5
    5278:	00e687b3          	add	a5,a3,a4
    527c:	00060413          	mv	s0,a2
    5280:	f6dff06f          	j	51ec <__addsf3+0xb8>
    5284:	00140693          	addi	a3,s0,1
    5288:	0fe6f613          	andi	a2,a3,254
    528c:	06061c63          	bnez	a2,5304 <__addsf3+0x1d0>
    5290:	06041263          	bnez	s0,52f4 <__addsf3+0x1c0>
    5294:	2a078863          	beqz	a5,5544 <__addsf3+0x410>
    5298:	08070c63          	beqz	a4,5330 <__addsf3+0x1fc>
    529c:	00f70733          	add	a4,a4,a5
    52a0:	00571793          	slli	a5,a4,0x5
    52a4:	1c07d863          	bgez	a5,5474 <__addsf3+0x340>
    52a8:	1f8007b7          	lui	a5,0x1f800
    52ac:	00375713          	srli	a4,a4,0x3
    52b0:	fff78793          	addi	a5,a5,-1 # 1f7fffff <__heap_end+0xb7fffff>
    52b4:	00f777b3          	and	a5,a4,a5
    52b8:	00100413          	li	s0,1
    52bc:	01741413          	slli	s0,s0,0x17
    52c0:	7f800737          	lui	a4,0x7f800
    52c4:	00979793          	slli	a5,a5,0x9
    52c8:	00e47433          	and	s0,s0,a4
    52cc:	0097d793          	srli	a5,a5,0x9
    52d0:	00f46433          	or	s0,s0,a5
    52d4:	01f49513          	slli	a0,s1,0x1f
    52d8:	00c12083          	lw	ra,12(sp)
    52dc:	00a46533          	or	a0,s0,a0
    52e0:	00812403          	lw	s0,8(sp)
    52e4:	00412483          	lw	s1,4(sp)
    52e8:	00012903          	lw	s2,0(sp)
    52ec:	01010113          	addi	sp,sp,16
    52f0:	00008067          	ret
    52f4:	f40784e3          	beqz	a5,523c <__addsf3+0x108>
    52f8:	1c071863          	bnez	a4,54c8 <__addsf3+0x394>
    52fc:	00078713          	mv	a4,a5
    5300:	f3dff06f          	j	523c <__addsf3+0x108>
    5304:	0ff00613          	li	a2,255
    5308:	24c68863          	beq	a3,a2,5558 <__addsf3+0x424>
    530c:	00e78733          	add	a4,a5,a4
    5310:	00175793          	srli	a5,a4,0x1
    5314:	00068413          	mv	s0,a3
    5318:	0077f713          	andi	a4,a5,7
    531c:	00070a63          	beqz	a4,5330 <__addsf3+0x1fc>
    5320:	00f7f713          	andi	a4,a5,15
    5324:	00400693          	li	a3,4
    5328:	00d70463          	beq	a4,a3,5330 <__addsf3+0x1fc>
    532c:	00d787b3          	add	a5,a5,a3
    5330:	00579713          	slli	a4,a5,0x5
    5334:	e6075ce3          	bgez	a4,51ac <__addsf3+0x78>
    5338:	00140413          	addi	s0,s0,1
    533c:	0ff00713          	li	a4,255
    5340:	20e40e63          	beq	s0,a4,555c <__addsf3+0x428>
    5344:	1f800737          	lui	a4,0x1f800
    5348:	0037d793          	srli	a5,a5,0x3
    534c:	fff70713          	addi	a4,a4,-1 # 1f7fffff <__heap_end+0xb7fffff>
    5350:	00e7f7b3          	and	a5,a5,a4
    5354:	f69ff06f          	j	52bc <__addsf3+0x188>
    5358:	08d05063          	blez	a3,53d8 <__addsf3+0x2a4>
    535c:	06061263          	bnez	a2,53c0 <__addsf3+0x28c>
    5360:	e40704e3          	beqz	a4,51a8 <__addsf3+0x74>
    5364:	fff68613          	addi	a2,a3,-1
    5368:	00061863          	bnez	a2,5378 <__addsf3+0x244>
    536c:	40e787b3          	sub	a5,a5,a4
    5370:	00100413          	li	s0,1
    5374:	0340006f          	j	53a8 <__addsf3+0x274>
    5378:	0ff00593          	li	a1,255
    537c:	e2b686e3          	beq	a3,a1,51a8 <__addsf3+0x74>
    5380:	01b00593          	li	a1,27
    5384:	00100693          	li	a3,1
    5388:	00c5ce63          	blt	a1,a2,53a4 <__addsf3+0x270>
    538c:	02000693          	li	a3,32
    5390:	40c686b3          	sub	a3,a3,a2
    5394:	00c755b3          	srl	a1,a4,a2
    5398:	00d71733          	sll	a4,a4,a3
    539c:	00e03733          	snez	a4,a4
    53a0:	00e5e6b3          	or	a3,a1,a4
    53a4:	40d787b3          	sub	a5,a5,a3
    53a8:	00579713          	slli	a4,a5,0x5
    53ac:	f60756e3          	bgez	a4,5318 <__addsf3+0x1e4>
    53b0:	04000937          	lui	s2,0x4000
    53b4:	fff90913          	addi	s2,s2,-1 # 3ffffff <__stack_top+0x3feffff>
    53b8:	0127f933          	and	s2,a5,s2
    53bc:	1300006f          	j	54ec <__addsf3+0x3b8>
    53c0:	0ff00613          	li	a2,255
    53c4:	dec404e3          	beq	s0,a2,51ac <__addsf3+0x78>
    53c8:	04000637          	lui	a2,0x4000
    53cc:	00c76733          	or	a4,a4,a2
    53d0:	00068613          	mv	a2,a3
    53d4:	fadff06f          	j	5380 <__addsf3+0x24c>
    53d8:	06068e63          	beqz	a3,5454 <__addsf3+0x320>
    53dc:	408606b3          	sub	a3,a2,s0
    53e0:	02041663          	bnez	s0,540c <__addsf3+0x2d8>
    53e4:	16078463          	beqz	a5,554c <__addsf3+0x418>
    53e8:	fff68513          	addi	a0,a3,-1
    53ec:	00051863          	bnez	a0,53fc <__addsf3+0x2c8>
    53f0:	40f707b3          	sub	a5,a4,a5
    53f4:	00058493          	mv	s1,a1
    53f8:	f79ff06f          	j	5370 <__addsf3+0x23c>
    53fc:	0ff00813          	li	a6,255
    5400:	03069063          	bne	a3,a6,5420 <__addsf3+0x2ec>
    5404:	00058493          	mv	s1,a1
    5408:	e35ff06f          	j	523c <__addsf3+0x108>
    540c:	0ff00513          	li	a0,255
    5410:	fea60ae3          	beq	a2,a0,5404 <__addsf3+0x2d0>
    5414:	04000537          	lui	a0,0x4000
    5418:	00a7e7b3          	or	a5,a5,a0
    541c:	00068513          	mv	a0,a3
    5420:	01b00813          	li	a6,27
    5424:	00100693          	li	a3,1
    5428:	00a84e63          	blt	a6,a0,5444 <__addsf3+0x310>
    542c:	02000693          	li	a3,32
    5430:	40a686b3          	sub	a3,a3,a0
    5434:	00a7d833          	srl	a6,a5,a0
    5438:	00d797b3          	sll	a5,a5,a3
    543c:	00f037b3          	snez	a5,a5
    5440:	00f866b3          	or	a3,a6,a5
    5444:	40d707b3          	sub	a5,a4,a3
    5448:	00060413          	mv	s0,a2
    544c:	00058493          	mv	s1,a1
    5450:	f59ff06f          	j	53a8 <__addsf3+0x274>
    5454:	00140693          	addi	a3,s0,1
    5458:	0fe6f693          	andi	a3,a3,254
    545c:	06069e63          	bnez	a3,54d8 <__addsf3+0x3a4>
    5460:	06041263          	bnez	s0,54c4 <__addsf3+0x390>
    5464:	02079463          	bnez	a5,548c <__addsf3+0x358>
    5468:	00000493          	li	s1,0
    546c:	e40708e3          	beqz	a4,52bc <__addsf3+0x188>
    5470:	00058493          	mv	s1,a1
    5474:	00375793          	srli	a5,a4,0x3
    5478:	0ff00713          	li	a4,255
    547c:	e4e410e3          	bne	s0,a4,52bc <__addsf3+0x188>
    5480:	e2078ee3          	beqz	a5,52bc <__addsf3+0x188>
    5484:	004007b7          	lui	a5,0x400
    5488:	0340006f          	j	54bc <__addsf3+0x388>
    548c:	ea0702e3          	beqz	a4,5330 <__addsf3+0x1fc>
    5490:	40e786b3          	sub	a3,a5,a4
    5494:	00569613          	slli	a2,a3,0x5
    5498:	00065c63          	bgez	a2,54b0 <__addsf3+0x37c>
    549c:	40f707b3          	sub	a5,a4,a5
    54a0:	00058493          	mv	s1,a1
    54a4:	00000413          	li	s0,0
    54a8:	e0078ae3          	beqz	a5,52bc <__addsf3+0x188>
    54ac:	e6dff06f          	j	5318 <__addsf3+0x1e4>
    54b0:	00068713          	mv	a4,a3
    54b4:	fc0690e3          	bnez	a3,5474 <__addsf3+0x340>
    54b8:	00000793          	li	a5,0
    54bc:	00000493          	li	s1,0
    54c0:	dfdff06f          	j	52bc <__addsf3+0x188>
    54c4:	e2079ae3          	bnez	a5,52f8 <__addsf3+0x1c4>
    54c8:	00000493          	li	s1,0
    54cc:	0ff00413          	li	s0,255
    54d0:	004007b7          	lui	a5,0x400
    54d4:	de9ff06f          	j	52bc <__addsf3+0x188>
    54d8:	40e78933          	sub	s2,a5,a4
    54dc:	00591693          	slli	a3,s2,0x5
    54e0:	0406d263          	bgez	a3,5524 <__addsf3+0x3f0>
    54e4:	40f70933          	sub	s2,a4,a5
    54e8:	00058493          	mv	s1,a1
    54ec:	00090513          	mv	a0,s2
    54f0:	701000ef          	jal	63f0 <__clzsi2>
    54f4:	ffb50513          	addi	a0,a0,-5 # 3fffffb <__stack_top+0x3fefffb>
    54f8:	00a91933          	sll	s2,s2,a0
    54fc:	02854a63          	blt	a0,s0,5530 <__addsf3+0x3fc>
    5500:	40850533          	sub	a0,a0,s0
    5504:	00150513          	addi	a0,a0,1
    5508:	02000713          	li	a4,32
    550c:	40a70733          	sub	a4,a4,a0
    5510:	00a957b3          	srl	a5,s2,a0
    5514:	00e91933          	sll	s2,s2,a4
    5518:	01203933          	snez	s2,s2
    551c:	0127e7b3          	or	a5,a5,s2
    5520:	f85ff06f          	j	54a4 <__addsf3+0x370>
    5524:	fc0914e3          	bnez	s2,54ec <__addsf3+0x3b8>
    5528:	00000413          	li	s0,0
    552c:	f8dff06f          	j	54b8 <__addsf3+0x384>
    5530:	fc0007b7          	lui	a5,0xfc000
    5534:	fff78793          	addi	a5,a5,-1 # fbffffff <__heap_end+0xe7ffffff>
    5538:	40a40433          	sub	s0,s0,a0
    553c:	00f977b3          	and	a5,s2,a5
    5540:	dd9ff06f          	j	5318 <__addsf3+0x1e4>
    5544:	00070793          	mv	a5,a4
    5548:	f5dff06f          	j	54a4 <__addsf3+0x370>
    554c:	00058493          	mv	s1,a1
    5550:	00068413          	mv	s0,a3
    5554:	f21ff06f          	j	5474 <__addsf3+0x340>
    5558:	00068413          	mv	s0,a3
    555c:	00000793          	li	a5,0
    5560:	d5dff06f          	j	52bc <__addsf3+0x188>

00005564 <__divsf3>:
    5564:	fe010113          	addi	sp,sp,-32
    5568:	00912a23          	sw	s1,20(sp)
    556c:	01755493          	srli	s1,a0,0x17
    5570:	01212823          	sw	s2,16(sp)
    5574:	01312623          	sw	s3,12(sp)
    5578:	01412423          	sw	s4,8(sp)
    557c:	00951993          	slli	s3,a0,0x9
    5580:	00112e23          	sw	ra,28(sp)
    5584:	00812c23          	sw	s0,24(sp)
    5588:	01512223          	sw	s5,4(sp)
    558c:	0ff4f493          	zext.b	s1,s1
    5590:	00058a13          	mv	s4,a1
    5594:	0099d993          	srli	s3,s3,0x9
    5598:	01f55913          	srli	s2,a0,0x1f
    559c:	08048463          	beqz	s1,5624 <__divsf3+0xc0>
    55a0:	0ff00793          	li	a5,255
    55a4:	0af48063          	beq	s1,a5,5644 <__divsf3+0xe0>
    55a8:	00399993          	slli	s3,s3,0x3
    55ac:	040007b7          	lui	a5,0x4000
    55b0:	00f9e9b3          	or	s3,s3,a5
    55b4:	f8148493          	addi	s1,s1,-127
    55b8:	00000a93          	li	s5,0
    55bc:	017a5793          	srli	a5,s4,0x17
    55c0:	009a1413          	slli	s0,s4,0x9
    55c4:	0ff7f793          	zext.b	a5,a5
    55c8:	00945413          	srli	s0,s0,0x9
    55cc:	01fa5a13          	srli	s4,s4,0x1f
    55d0:	08078863          	beqz	a5,5660 <__divsf3+0xfc>
    55d4:	0ff00713          	li	a4,255
    55d8:	0ae78463          	beq	a5,a4,5680 <__divsf3+0x11c>
    55dc:	00341413          	slli	s0,s0,0x3
    55e0:	04000737          	lui	a4,0x4000
    55e4:	00e46433          	or	s0,s0,a4
    55e8:	f8178793          	addi	a5,a5,-127 # 3ffff81 <__stack_top+0x3feff81>
    55ec:	00000713          	li	a4,0
    55f0:	40f484b3          	sub	s1,s1,a5
    55f4:	002a9793          	slli	a5,s5,0x2
    55f8:	00e7e7b3          	or	a5,a5,a4
    55fc:	fff78793          	addi	a5,a5,-1
    5600:	00e00693          	li	a3,14
    5604:	01494533          	xor	a0,s2,s4
    5608:	08f6ea63          	bltu	a3,a5,569c <__divsf3+0x138>
    560c:	000076b7          	lui	a3,0x7
    5610:	00279793          	slli	a5,a5,0x2
    5614:	ba468693          	addi	a3,a3,-1116 # 6ba4 <__clzsi2+0x7b4>
    5618:	00d787b3          	add	a5,a5,a3
    561c:	0007a783          	lw	a5,0(a5)
    5620:	00078067          	jr	a5
    5624:	02098863          	beqz	s3,5654 <__divsf3+0xf0>
    5628:	00098513          	mv	a0,s3
    562c:	5c5000ef          	jal	63f0 <__clzsi2>
    5630:	ffb50793          	addi	a5,a0,-5
    5634:	f8a00493          	li	s1,-118
    5638:	00f999b3          	sll	s3,s3,a5
    563c:	40a484b3          	sub	s1,s1,a0
    5640:	f79ff06f          	j	55b8 <__divsf3+0x54>
    5644:	00200a93          	li	s5,2
    5648:	f6098ae3          	beqz	s3,55bc <__divsf3+0x58>
    564c:	00300a93          	li	s5,3
    5650:	f6dff06f          	j	55bc <__divsf3+0x58>
    5654:	00000493          	li	s1,0
    5658:	00100a93          	li	s5,1
    565c:	f61ff06f          	j	55bc <__divsf3+0x58>
    5660:	02040863          	beqz	s0,5690 <__divsf3+0x12c>
    5664:	00040513          	mv	a0,s0
    5668:	589000ef          	jal	63f0 <__clzsi2>
    566c:	ffb50793          	addi	a5,a0,-5
    5670:	00f41433          	sll	s0,s0,a5
    5674:	f8a00793          	li	a5,-118
    5678:	40a787b3          	sub	a5,a5,a0
    567c:	f71ff06f          	j	55ec <__divsf3+0x88>
    5680:	00200713          	li	a4,2
    5684:	f60406e3          	beqz	s0,55f0 <__divsf3+0x8c>
    5688:	00300713          	li	a4,3
    568c:	f65ff06f          	j	55f0 <__divsf3+0x8c>
    5690:	00000793          	li	a5,0
    5694:	00100713          	li	a4,1
    5698:	f59ff06f          	j	55f0 <__divsf3+0x8c>
    569c:	00541713          	slli	a4,s0,0x5
    56a0:	1289f063          	bgeu	s3,s0,57c0 <__divsf3+0x25c>
    56a4:	fff48493          	addi	s1,s1,-1
    56a8:	00000793          	li	a5,0
    56ac:	01075613          	srli	a2,a4,0x10
    56b0:	02c9d833          	divu	a6,s3,a2
    56b4:	01071693          	slli	a3,a4,0x10
    56b8:	0106d693          	srli	a3,a3,0x10
    56bc:	0107d793          	srli	a5,a5,0x10
    56c0:	02c9f9b3          	remu	s3,s3,a2
    56c4:	00080413          	mv	s0,a6
    56c8:	030685b3          	mul	a1,a3,a6
    56cc:	01099993          	slli	s3,s3,0x10
    56d0:	0137e7b3          	or	a5,a5,s3
    56d4:	00b7fe63          	bgeu	a5,a1,56f0 <__divsf3+0x18c>
    56d8:	00f707b3          	add	a5,a4,a5
    56dc:	fff80413          	addi	s0,a6,-1
    56e0:	00e7e863          	bltu	a5,a4,56f0 <__divsf3+0x18c>
    56e4:	00b7f663          	bgeu	a5,a1,56f0 <__divsf3+0x18c>
    56e8:	ffe80413          	addi	s0,a6,-2
    56ec:	00e787b3          	add	a5,a5,a4
    56f0:	40b787b3          	sub	a5,a5,a1
    56f4:	02c7d5b3          	divu	a1,a5,a2
    56f8:	02c7f7b3          	remu	a5,a5,a2
    56fc:	00058613          	mv	a2,a1
    5700:	02b686b3          	mul	a3,a3,a1
    5704:	01079793          	slli	a5,a5,0x10
    5708:	02d7f263          	bgeu	a5,a3,572c <__divsf3+0x1c8>
    570c:	00e78833          	add	a6,a5,a4
    5710:	00f838b3          	sltu	a7,a6,a5
    5714:	fff58613          	addi	a2,a1,-1 # 3ffffff <__stack_top+0x3feffff>
    5718:	00080793          	mv	a5,a6
    571c:	00089863          	bnez	a7,572c <__divsf3+0x1c8>
    5720:	00d87663          	bgeu	a6,a3,572c <__divsf3+0x1c8>
    5724:	ffe58613          	addi	a2,a1,-2
    5728:	00e807b3          	add	a5,a6,a4
    572c:	01041413          	slli	s0,s0,0x10
    5730:	40d787b3          	sub	a5,a5,a3
    5734:	00c46433          	or	s0,s0,a2
    5738:	00f037b3          	snez	a5,a5
    573c:	00f46433          	or	s0,s0,a5
    5740:	07f48713          	addi	a4,s1,127
    5744:	0ce05063          	blez	a4,5804 <__divsf3+0x2a0>
    5748:	00747793          	andi	a5,s0,7
    574c:	00078a63          	beqz	a5,5760 <__divsf3+0x1fc>
    5750:	00f47793          	andi	a5,s0,15
    5754:	00400693          	li	a3,4
    5758:	00d78463          	beq	a5,a3,5760 <__divsf3+0x1fc>
    575c:	00d40433          	add	s0,s0,a3
    5760:	00441793          	slli	a5,s0,0x4
    5764:	0007da63          	bgez	a5,5778 <__divsf3+0x214>
    5768:	f80007b7          	lui	a5,0xf8000
    576c:	fff78793          	addi	a5,a5,-1 # f7ffffff <__heap_end+0xe3ffffff>
    5770:	00f47433          	and	s0,s0,a5
    5774:	08048713          	addi	a4,s1,128
    5778:	0fe00793          	li	a5,254
    577c:	0ee7cc63          	blt	a5,a4,5874 <__divsf3+0x310>
    5780:	00345793          	srli	a5,s0,0x3
    5784:	01c12083          	lw	ra,28(sp)
    5788:	01812403          	lw	s0,24(sp)
    578c:	00979793          	slli	a5,a5,0x9
    5790:	01771713          	slli	a4,a4,0x17
    5794:	0097d793          	srli	a5,a5,0x9
    5798:	00f76733          	or	a4,a4,a5
    579c:	01f51513          	slli	a0,a0,0x1f
    57a0:	01412483          	lw	s1,20(sp)
    57a4:	01012903          	lw	s2,16(sp)
    57a8:	00c12983          	lw	s3,12(sp)
    57ac:	00812a03          	lw	s4,8(sp)
    57b0:	00412a83          	lw	s5,4(sp)
    57b4:	00a76533          	or	a0,a4,a0
    57b8:	02010113          	addi	sp,sp,32
    57bc:	00008067          	ret
    57c0:	01f99793          	slli	a5,s3,0x1f
    57c4:	0019d993          	srli	s3,s3,0x1
    57c8:	ee5ff06f          	j	56ac <__divsf3+0x148>
    57cc:	000a0513          	mv	a0,s4
    57d0:	00200793          	li	a5,2
    57d4:	0af70063          	beq	a4,a5,5874 <__divsf3+0x310>
    57d8:	00300793          	li	a5,3
    57dc:	08f70463          	beq	a4,a5,5864 <__divsf3+0x300>
    57e0:	00100793          	li	a5,1
    57e4:	f4f71ee3          	bne	a4,a5,5740 <__divsf3+0x1dc>
    57e8:	00000793          	li	a5,0
    57ec:	00000713          	li	a4,0
    57f0:	f95ff06f          	j	5784 <__divsf3+0x220>
    57f4:	00090513          	mv	a0,s2
    57f8:	00098413          	mv	s0,s3
    57fc:	000a8713          	mv	a4,s5
    5800:	fd1ff06f          	j	57d0 <__divsf3+0x26c>
    5804:	00100693          	li	a3,1
    5808:	00070c63          	beqz	a4,5820 <__divsf3+0x2bc>
    580c:	40e686b3          	sub	a3,a3,a4
    5810:	01b00613          	li	a2,27
    5814:	00000793          	li	a5,0
    5818:	00000713          	li	a4,0
    581c:	f6d644e3          	blt	a2,a3,5784 <__divsf3+0x220>
    5820:	09e48493          	addi	s1,s1,158
    5824:	00d456b3          	srl	a3,s0,a3
    5828:	00941433          	sll	s0,s0,s1
    582c:	00803433          	snez	s0,s0
    5830:	0086e7b3          	or	a5,a3,s0
    5834:	0077f713          	andi	a4,a5,7
    5838:	00070a63          	beqz	a4,584c <__divsf3+0x2e8>
    583c:	00f7f713          	andi	a4,a5,15
    5840:	00400693          	li	a3,4
    5844:	00d70463          	beq	a4,a3,584c <__divsf3+0x2e8>
    5848:	00d787b3          	add	a5,a5,a3
    584c:	00579713          	slli	a4,a5,0x5
    5850:	0037d793          	srli	a5,a5,0x3
    5854:	f8075ce3          	bgez	a4,57ec <__divsf3+0x288>
    5858:	00000793          	li	a5,0
    585c:	00100713          	li	a4,1
    5860:	f25ff06f          	j	5784 <__divsf3+0x220>
    5864:	004007b7          	lui	a5,0x400
    5868:	0ff00713          	li	a4,255
    586c:	00000513          	li	a0,0
    5870:	f15ff06f          	j	5784 <__divsf3+0x220>
    5874:	00000793          	li	a5,0
    5878:	0ff00713          	li	a4,255
    587c:	f09ff06f          	j	5784 <__divsf3+0x220>

00005880 <__eqsf2>:
    5880:	01755693          	srli	a3,a0,0x17
    5884:	008007b7          	lui	a5,0x800
    5888:	fff78793          	addi	a5,a5,-1 # 7fffff <__stack_top+0x7effff>
    588c:	0175d613          	srli	a2,a1,0x17
    5890:	0ff6f693          	zext.b	a3,a3
    5894:	0ff00893          	li	a7,255
    5898:	00a7f833          	and	a6,a5,a0
    589c:	01f55713          	srli	a4,a0,0x1f
    58a0:	00b7f7b3          	and	a5,a5,a1
    58a4:	0ff67613          	zext.b	a2,a2
    58a8:	01f5d593          	srli	a1,a1,0x1f
    58ac:	00100513          	li	a0,1
    58b0:	01169a63          	bne	a3,a7,58c4 <__eqsf2+0x44>
    58b4:	00081663          	bnez	a6,58c0 <__eqsf2+0x40>
    58b8:	00d61463          	bne	a2,a3,58c0 <__eqsf2+0x40>
    58bc:	00078a63          	beqz	a5,58d0 <__eqsf2+0x50>
    58c0:	00008067          	ret
    58c4:	ff160ee3          	beq	a2,a7,58c0 <__eqsf2+0x40>
    58c8:	fec69ce3          	bne	a3,a2,58c0 <__eqsf2+0x40>
    58cc:	fef81ae3          	bne	a6,a5,58c0 <__eqsf2+0x40>
    58d0:	00000513          	li	a0,0
    58d4:	feb706e3          	beq	a4,a1,58c0 <__eqsf2+0x40>
    58d8:	00100513          	li	a0,1
    58dc:	fe0692e3          	bnez	a3,58c0 <__eqsf2+0x40>
    58e0:	01003533          	snez	a0,a6
    58e4:	00008067          	ret

000058e8 <__gesf2>:
    58e8:	00800737          	lui	a4,0x800
    58ec:	fff70713          	addi	a4,a4,-1 # 7fffff <__stack_top+0x7effff>
    58f0:	01755693          	srli	a3,a0,0x17
    58f4:	00a77633          	and	a2,a4,a0
    58f8:	01f55793          	srli	a5,a0,0x1f
    58fc:	0ff6f693          	zext.b	a3,a3
    5900:	0175d513          	srli	a0,a1,0x17
    5904:	0ff00813          	li	a6,255
    5908:	00b77733          	and	a4,a4,a1
    590c:	0ff57513          	zext.b	a0,a0
    5910:	01f5d593          	srli	a1,a1,0x1f
    5914:	01069463          	bne	a3,a6,591c <__gesf2+0x34>
    5918:	02061e63          	bnez	a2,5954 <__gesf2+0x6c>
    591c:	01051463          	bne	a0,a6,5924 <__gesf2+0x3c>
    5920:	02071a63          	bnez	a4,5954 <__gesf2+0x6c>
    5924:	04069863          	bnez	a3,5974 <__gesf2+0x8c>
    5928:	02051a63          	bnez	a0,595c <__gesf2+0x74>
    592c:	04061663          	bnez	a2,5978 <__gesf2+0x90>
    5930:	02070063          	beqz	a4,5950 <__gesf2+0x68>
    5934:	00159513          	slli	a0,a1,0x1
    5938:	fff50513          	addi	a0,a0,-1
    593c:	00008067          	ret
    5940:	fea6cae3          	blt	a3,a0,5934 <__gesf2+0x4c>
    5944:	02c76263          	bltu	a4,a2,5968 <__gesf2+0x80>
    5948:	00000513          	li	a0,0
    594c:	fee664e3          	bltu	a2,a4,5934 <__gesf2+0x4c>
    5950:	00008067          	ret
    5954:	ffe00513          	li	a0,-2
    5958:	00008067          	ret
    595c:	fc060ce3          	beqz	a2,5934 <__gesf2+0x4c>
    5960:	00f59e63          	bne	a1,a5,597c <__gesf2+0x94>
    5964:	fcd55ee3          	bge	a0,a3,5940 <__gesf2+0x58>
    5968:	40b005b3          	neg	a1,a1
    596c:	0015e513          	ori	a0,a1,1
    5970:	00008067          	ret
    5974:	fe0516e3          	bnez	a0,5960 <__gesf2+0x78>
    5978:	fe0714e3          	bnez	a4,5960 <__gesf2+0x78>
    597c:	40f00533          	neg	a0,a5
    5980:	00156513          	ori	a0,a0,1
    5984:	00008067          	ret

00005988 <__lesf2>:
    5988:	00800737          	lui	a4,0x800
    598c:	fff70713          	addi	a4,a4,-1 # 7fffff <__stack_top+0x7effff>
    5990:	01755693          	srli	a3,a0,0x17
    5994:	00a77633          	and	a2,a4,a0
    5998:	01f55793          	srli	a5,a0,0x1f
    599c:	0ff6f693          	zext.b	a3,a3
    59a0:	0175d513          	srli	a0,a1,0x17
    59a4:	0ff00813          	li	a6,255
    59a8:	00b77733          	and	a4,a4,a1
    59ac:	0ff57513          	zext.b	a0,a0
    59b0:	01f5d593          	srli	a1,a1,0x1f
    59b4:	01069463          	bne	a3,a6,59bc <__lesf2+0x34>
    59b8:	02061e63          	bnez	a2,59f4 <__lesf2+0x6c>
    59bc:	01051463          	bne	a0,a6,59c4 <__lesf2+0x3c>
    59c0:	02071a63          	bnez	a4,59f4 <__lesf2+0x6c>
    59c4:	04069863          	bnez	a3,5a14 <__lesf2+0x8c>
    59c8:	02051a63          	bnez	a0,59fc <__lesf2+0x74>
    59cc:	04061663          	bnez	a2,5a18 <__lesf2+0x90>
    59d0:	02070063          	beqz	a4,59f0 <__lesf2+0x68>
    59d4:	00159513          	slli	a0,a1,0x1
    59d8:	fff50513          	addi	a0,a0,-1
    59dc:	00008067          	ret
    59e0:	fea6cae3          	blt	a3,a0,59d4 <__lesf2+0x4c>
    59e4:	02c76263          	bltu	a4,a2,5a08 <__lesf2+0x80>
    59e8:	00000513          	li	a0,0
    59ec:	fee664e3          	bltu	a2,a4,59d4 <__lesf2+0x4c>
    59f0:	00008067          	ret
    59f4:	00200513          	li	a0,2
    59f8:	00008067          	ret
    59fc:	fc060ce3          	beqz	a2,59d4 <__lesf2+0x4c>
    5a00:	00f59e63          	bne	a1,a5,5a1c <__lesf2+0x94>
    5a04:	fcd55ee3          	bge	a0,a3,59e0 <__lesf2+0x58>
    5a08:	40b005b3          	neg	a1,a1
    5a0c:	0015e513          	ori	a0,a1,1
    5a10:	00008067          	ret
    5a14:	fe0516e3          	bnez	a0,5a00 <__lesf2+0x78>
    5a18:	fe0714e3          	bnez	a4,5a00 <__lesf2+0x78>
    5a1c:	40f00533          	neg	a0,a5
    5a20:	00156513          	ori	a0,a0,1
    5a24:	00008067          	ret

00005a28 <__mulsf3>:
    5a28:	fe010113          	addi	sp,sp,-32
    5a2c:	01212823          	sw	s2,16(sp)
    5a30:	01755913          	srli	s2,a0,0x17
    5a34:	00912a23          	sw	s1,20(sp)
    5a38:	01312623          	sw	s3,12(sp)
    5a3c:	01512223          	sw	s5,4(sp)
    5a40:	00951493          	slli	s1,a0,0x9
    5a44:	00112e23          	sw	ra,28(sp)
    5a48:	00812c23          	sw	s0,24(sp)
    5a4c:	01412423          	sw	s4,8(sp)
    5a50:	0ff97913          	zext.b	s2,s2
    5a54:	00058a93          	mv	s5,a1
    5a58:	0094d493          	srli	s1,s1,0x9
    5a5c:	01f55993          	srli	s3,a0,0x1f
    5a60:	18090463          	beqz	s2,5be8 <__mulsf3+0x1c0>
    5a64:	0ff00793          	li	a5,255
    5a68:	1af90063          	beq	s2,a5,5c08 <__mulsf3+0x1e0>
    5a6c:	00349493          	slli	s1,s1,0x3
    5a70:	040007b7          	lui	a5,0x4000
    5a74:	00f4e4b3          	or	s1,s1,a5
    5a78:	f8190913          	addi	s2,s2,-127
    5a7c:	00000a13          	li	s4,0
    5a80:	017ad793          	srli	a5,s5,0x17
    5a84:	009a9413          	slli	s0,s5,0x9
    5a88:	0ff7f793          	zext.b	a5,a5
    5a8c:	00945413          	srli	s0,s0,0x9
    5a90:	01fada93          	srli	s5,s5,0x1f
    5a94:	18078863          	beqz	a5,5c24 <__mulsf3+0x1fc>
    5a98:	0ff00713          	li	a4,255
    5a9c:	1ae78463          	beq	a5,a4,5c44 <__mulsf3+0x21c>
    5aa0:	00341413          	slli	s0,s0,0x3
    5aa4:	04000737          	lui	a4,0x4000
    5aa8:	00e46433          	or	s0,s0,a4
    5aac:	f8178793          	addi	a5,a5,-127 # 3ffff81 <__stack_top+0x3feff81>
    5ab0:	00000713          	li	a4,0
    5ab4:	00f90933          	add	s2,s2,a5
    5ab8:	002a1793          	slli	a5,s4,0x2
    5abc:	00e7e7b3          	or	a5,a5,a4
    5ac0:	00a00693          	li	a3,10
    5ac4:	00190613          	addi	a2,s2,1
    5ac8:	1cf6ce63          	blt	a3,a5,5ca4 <__mulsf3+0x27c>
    5acc:	00200593          	li	a1,2
    5ad0:	0159c9b3          	xor	s3,s3,s5
    5ad4:	00100693          	li	a3,1
    5ad8:	18f5c463          	blt	a1,a5,5c60 <__mulsf3+0x238>
    5adc:	fff78793          	addi	a5,a5,-1
    5ae0:	1af6f063          	bgeu	a3,a5,5c80 <__mulsf3+0x258>
    5ae4:	0104d713          	srli	a4,s1,0x10
    5ae8:	01045793          	srli	a5,s0,0x10
    5aec:	01049493          	slli	s1,s1,0x10
    5af0:	01041413          	slli	s0,s0,0x10
    5af4:	0104d493          	srli	s1,s1,0x10
    5af8:	01045413          	srli	s0,s0,0x10
    5afc:	029405b3          	mul	a1,s0,s1
    5b00:	02870433          	mul	s0,a4,s0
    5b04:	02f70733          	mul	a4,a4,a5
    5b08:	029787b3          	mul	a5,a5,s1
    5b0c:	008786b3          	add	a3,a5,s0
    5b10:	0105d793          	srli	a5,a1,0x10
    5b14:	00d787b3          	add	a5,a5,a3
    5b18:	0087f663          	bgeu	a5,s0,5b24 <__mulsf3+0xfc>
    5b1c:	000106b7          	lui	a3,0x10
    5b20:	00d70733          	add	a4,a4,a3
    5b24:	01059593          	slli	a1,a1,0x10
    5b28:	01079693          	slli	a3,a5,0x10
    5b2c:	0105d593          	srli	a1,a1,0x10
    5b30:	00b686b3          	add	a3,a3,a1
    5b34:	0107d793          	srli	a5,a5,0x10
    5b38:	00669413          	slli	s0,a3,0x6
    5b3c:	00e787b3          	add	a5,a5,a4
    5b40:	00679793          	slli	a5,a5,0x6
    5b44:	00803433          	snez	s0,s0
    5b48:	01a6d693          	srli	a3,a3,0x1a
    5b4c:	00d46433          	or	s0,s0,a3
    5b50:	00479713          	slli	a4,a5,0x4
    5b54:	0087e433          	or	s0,a5,s0
    5b58:	16075463          	bgez	a4,5cc0 <__mulsf3+0x298>
    5b5c:	00145793          	srli	a5,s0,0x1
    5b60:	00147413          	andi	s0,s0,1
    5b64:	0087e433          	or	s0,a5,s0
    5b68:	07f60713          	addi	a4,a2,127 # 400007f <__sdram_size+0x7f>
    5b6c:	14e05e63          	blez	a4,5cc8 <__mulsf3+0x2a0>
    5b70:	00747793          	andi	a5,s0,7
    5b74:	00078a63          	beqz	a5,5b88 <__mulsf3+0x160>
    5b78:	00f47793          	andi	a5,s0,15
    5b7c:	00400693          	li	a3,4
    5b80:	00d78463          	beq	a5,a3,5b88 <__mulsf3+0x160>
    5b84:	00d40433          	add	s0,s0,a3
    5b88:	00441793          	slli	a5,s0,0x4
    5b8c:	0007da63          	bgez	a5,5ba0 <__mulsf3+0x178>
    5b90:	f80007b7          	lui	a5,0xf8000
    5b94:	fff78793          	addi	a5,a5,-1 # f7ffffff <__heap_end+0xe3ffffff>
    5b98:	00f47433          	and	s0,s0,a5
    5b9c:	08060713          	addi	a4,a2,128
    5ba0:	0fe00793          	li	a5,254
    5ba4:	18e7ca63          	blt	a5,a4,5d38 <__mulsf3+0x310>
    5ba8:	00345793          	srli	a5,s0,0x3
    5bac:	01c12083          	lw	ra,28(sp)
    5bb0:	01812403          	lw	s0,24(sp)
    5bb4:	00979793          	slli	a5,a5,0x9
    5bb8:	01771713          	slli	a4,a4,0x17
    5bbc:	0097d793          	srli	a5,a5,0x9
    5bc0:	01f99993          	slli	s3,s3,0x1f
    5bc4:	00f76733          	or	a4,a4,a5
    5bc8:	01412483          	lw	s1,20(sp)
    5bcc:	01012903          	lw	s2,16(sp)
    5bd0:	00812a03          	lw	s4,8(sp)
    5bd4:	00412a83          	lw	s5,4(sp)
    5bd8:	01376533          	or	a0,a4,s3
    5bdc:	00c12983          	lw	s3,12(sp)
    5be0:	02010113          	addi	sp,sp,32
    5be4:	00008067          	ret
    5be8:	02048863          	beqz	s1,5c18 <__mulsf3+0x1f0>
    5bec:	00048513          	mv	a0,s1
    5bf0:	001000ef          	jal	63f0 <__clzsi2>
    5bf4:	ffb50793          	addi	a5,a0,-5
    5bf8:	f8a00913          	li	s2,-118
    5bfc:	00f494b3          	sll	s1,s1,a5
    5c00:	40a90933          	sub	s2,s2,a0
    5c04:	e79ff06f          	j	5a7c <__mulsf3+0x54>
    5c08:	00200a13          	li	s4,2
    5c0c:	e6048ae3          	beqz	s1,5a80 <__mulsf3+0x58>
    5c10:	00300a13          	li	s4,3
    5c14:	e6dff06f          	j	5a80 <__mulsf3+0x58>
    5c18:	00000913          	li	s2,0
    5c1c:	00100a13          	li	s4,1
    5c20:	e61ff06f          	j	5a80 <__mulsf3+0x58>
    5c24:	02040863          	beqz	s0,5c54 <__mulsf3+0x22c>
    5c28:	00040513          	mv	a0,s0
    5c2c:	7c4000ef          	jal	63f0 <__clzsi2>
    5c30:	ffb50793          	addi	a5,a0,-5
    5c34:	00f41433          	sll	s0,s0,a5
    5c38:	f8a00793          	li	a5,-118
    5c3c:	40a787b3          	sub	a5,a5,a0
    5c40:	e71ff06f          	j	5ab0 <__mulsf3+0x88>
    5c44:	00200713          	li	a4,2
    5c48:	e60406e3          	beqz	s0,5ab4 <__mulsf3+0x8c>
    5c4c:	00300713          	li	a4,3
    5c50:	e65ff06f          	j	5ab4 <__mulsf3+0x8c>
    5c54:	00000793          	li	a5,0
    5c58:	00100713          	li	a4,1
    5c5c:	e59ff06f          	j	5ab4 <__mulsf3+0x8c>
    5c60:	00f697b3          	sll	a5,a3,a5
    5c64:	5307f693          	andi	a3,a5,1328
    5c68:	04069663          	bnez	a3,5cb4 <__mulsf3+0x28c>
    5c6c:	2407f693          	andi	a3,a5,576
    5c70:	0a069c63          	bnez	a3,5d28 <__mulsf3+0x300>
    5c74:	0887f793          	andi	a5,a5,136
    5c78:	e60786e3          	beqz	a5,5ae4 <__mulsf3+0xbc>
    5c7c:	000a8993          	mv	s3,s5
    5c80:	00200793          	li	a5,2
    5c84:	0af70a63          	beq	a4,a5,5d38 <__mulsf3+0x310>
    5c88:	00300793          	li	a5,3
    5c8c:	08f70e63          	beq	a4,a5,5d28 <__mulsf3+0x300>
    5c90:	00100793          	li	a5,1
    5c94:	ecf71ae3          	bne	a4,a5,5b68 <__mulsf3+0x140>
    5c98:	00000793          	li	a5,0
    5c9c:	00000713          	li	a4,0
    5ca0:	f0dff06f          	j	5bac <__mulsf3+0x184>
    5ca4:	00f00693          	li	a3,15
    5ca8:	08d78063          	beq	a5,a3,5d28 <__mulsf3+0x300>
    5cac:	00b00693          	li	a3,11
    5cb0:	fcd786e3          	beq	a5,a3,5c7c <__mulsf3+0x254>
    5cb4:	00048413          	mv	s0,s1
    5cb8:	000a0713          	mv	a4,s4
    5cbc:	fc5ff06f          	j	5c80 <__mulsf3+0x258>
    5cc0:	00090613          	mv	a2,s2
    5cc4:	ea5ff06f          	j	5b68 <__mulsf3+0x140>
    5cc8:	00100693          	li	a3,1
    5ccc:	00070c63          	beqz	a4,5ce4 <__mulsf3+0x2bc>
    5cd0:	40e686b3          	sub	a3,a3,a4
    5cd4:	01b00593          	li	a1,27
    5cd8:	00000793          	li	a5,0
    5cdc:	00000713          	li	a4,0
    5ce0:	ecd5c6e3          	blt	a1,a3,5bac <__mulsf3+0x184>
    5ce4:	09e60613          	addi	a2,a2,158
    5ce8:	00d456b3          	srl	a3,s0,a3
    5cec:	00c41433          	sll	s0,s0,a2
    5cf0:	00803433          	snez	s0,s0
    5cf4:	0086e7b3          	or	a5,a3,s0
    5cf8:	0077f713          	andi	a4,a5,7
    5cfc:	00070a63          	beqz	a4,5d10 <__mulsf3+0x2e8>
    5d00:	00f7f713          	andi	a4,a5,15
    5d04:	00400693          	li	a3,4
    5d08:	00d70463          	beq	a4,a3,5d10 <__mulsf3+0x2e8>
    5d0c:	00d787b3          	add	a5,a5,a3
    5d10:	00579713          	slli	a4,a5,0x5
    5d14:	0037d793          	srli	a5,a5,0x3
    5d18:	f80752e3          	bgez	a4,5c9c <__mulsf3+0x274>
    5d1c:	00000793          	li	a5,0
    5d20:	00100713          	li	a4,1
    5d24:	e89ff06f          	j	5bac <__mulsf3+0x184>
    5d28:	004007b7          	lui	a5,0x400
    5d2c:	0ff00713          	li	a4,255
    5d30:	00000993          	li	s3,0
    5d34:	e79ff06f          	j	5bac <__mulsf3+0x184>
    5d38:	00000793          	li	a5,0
    5d3c:	0ff00713          	li	a4,255
    5d40:	e6dff06f          	j	5bac <__mulsf3+0x184>

00005d44 <__subsf3>:
    5d44:	00800737          	lui	a4,0x800
    5d48:	ff010113          	addi	sp,sp,-16
    5d4c:	fff70713          	addi	a4,a4,-1 # 7fffff <__stack_top+0x7effff>
    5d50:	0175d693          	srli	a3,a1,0x17
    5d54:	00a777b3          	and	a5,a4,a0
    5d58:	00812423          	sw	s0,8(sp)
    5d5c:	00b77733          	and	a4,a4,a1
    5d60:	00912223          	sw	s1,4(sp)
    5d64:	01755413          	srli	s0,a0,0x17
    5d68:	00112623          	sw	ra,12(sp)
    5d6c:	01212023          	sw	s2,0(sp)
    5d70:	0ff6f693          	zext.b	a3,a3
    5d74:	0ff00613          	li	a2,255
    5d78:	0ff47413          	zext.b	s0,s0
    5d7c:	01f55493          	srli	s1,a0,0x1f
    5d80:	00379793          	slli	a5,a5,0x3
    5d84:	01f5d593          	srli	a1,a1,0x1f
    5d88:	00371713          	slli	a4,a4,0x3
    5d8c:	00c69463          	bne	a3,a2,5d94 <__subsf3+0x50>
    5d90:	00071463          	bnez	a4,5d98 <__subsf3+0x54>
    5d94:	0015c593          	xori	a1,a1,1
    5d98:	40d40633          	sub	a2,s0,a3
    5d9c:	1c959e63          	bne	a1,s1,5f78 <__subsf3+0x234>
    5da0:	08c05e63          	blez	a2,5e3c <__subsf3+0xf8>
    5da4:	0ff00513          	li	a0,255
    5da8:	02069663          	bnez	a3,5dd4 <__subsf3+0x90>
    5dac:	00070e63          	beqz	a4,5dc8 <__subsf3+0x84>
    5db0:	fff60593          	addi	a1,a2,-1
    5db4:	00059863          	bnez	a1,5dc4 <__subsf3+0x80>
    5db8:	00e787b3          	add	a5,a5,a4
    5dbc:	00100413          	li	s0,1
    5dc0:	04c0006f          	j	5e0c <__subsf3+0xc8>
    5dc4:	02a61063          	bne	a2,a0,5de4 <__subsf3+0xa0>
    5dc8:	00060413          	mv	s0,a2
    5dcc:	00078713          	mv	a4,a5
    5dd0:	2c40006f          	j	6094 <__subsf3+0x350>
    5dd4:	fea40ce3          	beq	s0,a0,5dcc <__subsf3+0x88>
    5dd8:	040006b7          	lui	a3,0x4000
    5ddc:	00d76733          	or	a4,a4,a3
    5de0:	00060593          	mv	a1,a2
    5de4:	01b00613          	li	a2,27
    5de8:	00100693          	li	a3,1
    5dec:	00b64e63          	blt	a2,a1,5e08 <__subsf3+0xc4>
    5df0:	02000693          	li	a3,32
    5df4:	40b686b3          	sub	a3,a3,a1
    5df8:	00b75633          	srl	a2,a4,a1
    5dfc:	00d71733          	sll	a4,a4,a3
    5e00:	00e03733          	snez	a4,a4
    5e04:	00e666b3          	or	a3,a2,a4
    5e08:	00d787b3          	add	a5,a5,a3
    5e0c:	00579713          	slli	a4,a5,0x5
    5e10:	12075463          	bgez	a4,5f38 <__subsf3+0x1f4>
    5e14:	00140413          	addi	s0,s0,1
    5e18:	0ff00713          	li	a4,255
    5e1c:	36e40063          	beq	s0,a4,617c <__subsf3+0x438>
    5e20:	7e000737          	lui	a4,0x7e000
    5e24:	0017f693          	andi	a3,a5,1
    5e28:	fff70713          	addi	a4,a4,-1 # 7dffffff <__heap_end+0x69ffffff>
    5e2c:	0017d793          	srli	a5,a5,0x1
    5e30:	00e7f7b3          	and	a5,a5,a4
    5e34:	00d7e7b3          	or	a5,a5,a3
    5e38:	1000006f          	j	5f38 <__subsf3+0x1f4>
    5e3c:	06060463          	beqz	a2,5ea4 <__subsf3+0x160>
    5e40:	40868633          	sub	a2,a3,s0
    5e44:	0ff00513          	li	a0,255
    5e48:	00041e63          	bnez	s0,5e64 <__subsf3+0x120>
    5e4c:	32078263          	beqz	a5,6170 <__subsf3+0x42c>
    5e50:	fff60593          	addi	a1,a2,-1
    5e54:	f60582e3          	beqz	a1,5db8 <__subsf3+0x74>
    5e58:	00a61e63          	bne	a2,a0,5e74 <__subsf3+0x130>
    5e5c:	0ff00413          	li	s0,255
    5e60:	2340006f          	j	6094 <__subsf3+0x350>
    5e64:	fea68ce3          	beq	a3,a0,5e5c <__subsf3+0x118>
    5e68:	040005b7          	lui	a1,0x4000
    5e6c:	00b7e7b3          	or	a5,a5,a1
    5e70:	00060593          	mv	a1,a2
    5e74:	01b00513          	li	a0,27
    5e78:	00100613          	li	a2,1
    5e7c:	00b54e63          	blt	a0,a1,5e98 <__subsf3+0x154>
    5e80:	02000613          	li	a2,32
    5e84:	40b60633          	sub	a2,a2,a1
    5e88:	00b7d533          	srl	a0,a5,a1
    5e8c:	00c797b3          	sll	a5,a5,a2
    5e90:	00f037b3          	snez	a5,a5
    5e94:	00f56633          	or	a2,a0,a5
    5e98:	00e607b3          	add	a5,a2,a4
    5e9c:	00068413          	mv	s0,a3
    5ea0:	f6dff06f          	j	5e0c <__subsf3+0xc8>
    5ea4:	00140693          	addi	a3,s0,1
    5ea8:	0fe6f613          	andi	a2,a3,254
    5eac:	06061c63          	bnez	a2,5f24 <__subsf3+0x1e0>
    5eb0:	06041263          	bnez	s0,5f14 <__subsf3+0x1d0>
    5eb4:	2a078863          	beqz	a5,6164 <__subsf3+0x420>
    5eb8:	08070c63          	beqz	a4,5f50 <__subsf3+0x20c>
    5ebc:	00f70733          	add	a4,a4,a5
    5ec0:	00571793          	slli	a5,a4,0x5
    5ec4:	1c07d863          	bgez	a5,6094 <__subsf3+0x350>
    5ec8:	1f8007b7          	lui	a5,0x1f800
    5ecc:	00375713          	srli	a4,a4,0x3
    5ed0:	fff78793          	addi	a5,a5,-1 # 1f7fffff <__heap_end+0xb7fffff>
    5ed4:	00f777b3          	and	a5,a4,a5
    5ed8:	00100413          	li	s0,1
    5edc:	01741413          	slli	s0,s0,0x17
    5ee0:	7f800737          	lui	a4,0x7f800
    5ee4:	00979793          	slli	a5,a5,0x9
    5ee8:	00e47433          	and	s0,s0,a4
    5eec:	0097d793          	srli	a5,a5,0x9
    5ef0:	00f46433          	or	s0,s0,a5
    5ef4:	01f49513          	slli	a0,s1,0x1f
    5ef8:	00c12083          	lw	ra,12(sp)
    5efc:	00a46533          	or	a0,s0,a0
    5f00:	00812403          	lw	s0,8(sp)
    5f04:	00412483          	lw	s1,4(sp)
    5f08:	00012903          	lw	s2,0(sp)
    5f0c:	01010113          	addi	sp,sp,16
    5f10:	00008067          	ret
    5f14:	f40784e3          	beqz	a5,5e5c <__subsf3+0x118>
    5f18:	1c071863          	bnez	a4,60e8 <__subsf3+0x3a4>
    5f1c:	00078713          	mv	a4,a5
    5f20:	f3dff06f          	j	5e5c <__subsf3+0x118>
    5f24:	0ff00613          	li	a2,255
    5f28:	24c68863          	beq	a3,a2,6178 <__subsf3+0x434>
    5f2c:	00e78733          	add	a4,a5,a4
    5f30:	00175793          	srli	a5,a4,0x1
    5f34:	00068413          	mv	s0,a3
    5f38:	0077f713          	andi	a4,a5,7
    5f3c:	00070a63          	beqz	a4,5f50 <__subsf3+0x20c>
    5f40:	00f7f713          	andi	a4,a5,15
    5f44:	00400693          	li	a3,4
    5f48:	00d70463          	beq	a4,a3,5f50 <__subsf3+0x20c>
    5f4c:	00d787b3          	add	a5,a5,a3
    5f50:	00579713          	slli	a4,a5,0x5
    5f54:	e6075ce3          	bgez	a4,5dcc <__subsf3+0x88>
    5f58:	00140413          	addi	s0,s0,1
    5f5c:	0ff00713          	li	a4,255
    5f60:	20e40e63          	beq	s0,a4,617c <__subsf3+0x438>
    5f64:	1f800737          	lui	a4,0x1f800
    5f68:	0037d793          	srli	a5,a5,0x3
    5f6c:	fff70713          	addi	a4,a4,-1 # 1f7fffff <__heap_end+0xb7fffff>
    5f70:	00e7f7b3          	and	a5,a5,a4
    5f74:	f69ff06f          	j	5edc <__subsf3+0x198>
    5f78:	08c05063          	blez	a2,5ff8 <__subsf3+0x2b4>
    5f7c:	06069263          	bnez	a3,5fe0 <__subsf3+0x29c>
    5f80:	e40704e3          	beqz	a4,5dc8 <__subsf3+0x84>
    5f84:	fff60593          	addi	a1,a2,-1
    5f88:	00059863          	bnez	a1,5f98 <__subsf3+0x254>
    5f8c:	40e787b3          	sub	a5,a5,a4
    5f90:	00100413          	li	s0,1
    5f94:	0340006f          	j	5fc8 <__subsf3+0x284>
    5f98:	0ff00693          	li	a3,255
    5f9c:	e2d606e3          	beq	a2,a3,5dc8 <__subsf3+0x84>
    5fa0:	01b00613          	li	a2,27
    5fa4:	00100693          	li	a3,1
    5fa8:	00b64e63          	blt	a2,a1,5fc4 <__subsf3+0x280>
    5fac:	02000693          	li	a3,32
    5fb0:	40b686b3          	sub	a3,a3,a1
    5fb4:	00b75633          	srl	a2,a4,a1
    5fb8:	00d71733          	sll	a4,a4,a3
    5fbc:	00e03733          	snez	a4,a4
    5fc0:	00e666b3          	or	a3,a2,a4
    5fc4:	40d787b3          	sub	a5,a5,a3
    5fc8:	00579713          	slli	a4,a5,0x5
    5fcc:	f60756e3          	bgez	a4,5f38 <__subsf3+0x1f4>
    5fd0:	04000937          	lui	s2,0x4000
    5fd4:	fff90913          	addi	s2,s2,-1 # 3ffffff <__stack_top+0x3feffff>
    5fd8:	0127f933          	and	s2,a5,s2
    5fdc:	1300006f          	j	610c <__subsf3+0x3c8>
    5fe0:	0ff00693          	li	a3,255
    5fe4:	ded404e3          	beq	s0,a3,5dcc <__subsf3+0x88>
    5fe8:	040006b7          	lui	a3,0x4000
    5fec:	00d76733          	or	a4,a4,a3
    5ff0:	00060593          	mv	a1,a2
    5ff4:	fadff06f          	j	5fa0 <__subsf3+0x25c>
    5ff8:	06060e63          	beqz	a2,6074 <__subsf3+0x330>
    5ffc:	40868633          	sub	a2,a3,s0
    6000:	02041663          	bnez	s0,602c <__subsf3+0x2e8>
    6004:	16078463          	beqz	a5,616c <__subsf3+0x428>
    6008:	fff60513          	addi	a0,a2,-1
    600c:	00051863          	bnez	a0,601c <__subsf3+0x2d8>
    6010:	40f707b3          	sub	a5,a4,a5
    6014:	00058493          	mv	s1,a1
    6018:	f79ff06f          	j	5f90 <__subsf3+0x24c>
    601c:	0ff00813          	li	a6,255
    6020:	03061063          	bne	a2,a6,6040 <__subsf3+0x2fc>
    6024:	00058493          	mv	s1,a1
    6028:	e35ff06f          	j	5e5c <__subsf3+0x118>
    602c:	0ff00513          	li	a0,255
    6030:	fea68ae3          	beq	a3,a0,6024 <__subsf3+0x2e0>
    6034:	04000537          	lui	a0,0x4000
    6038:	00a7e7b3          	or	a5,a5,a0
    603c:	00060513          	mv	a0,a2
    6040:	01b00813          	li	a6,27
    6044:	00100613          	li	a2,1
    6048:	00a84e63          	blt	a6,a0,6064 <__subsf3+0x320>
    604c:	02000613          	li	a2,32
    6050:	40a60633          	sub	a2,a2,a0
    6054:	00a7d833          	srl	a6,a5,a0
    6058:	00c797b3          	sll	a5,a5,a2
    605c:	00f037b3          	snez	a5,a5
    6060:	00f86633          	or	a2,a6,a5
    6064:	40c707b3          	sub	a5,a4,a2
    6068:	00068413          	mv	s0,a3
    606c:	00058493          	mv	s1,a1
    6070:	f59ff06f          	j	5fc8 <__subsf3+0x284>
    6074:	00140693          	addi	a3,s0,1
    6078:	0fe6f693          	andi	a3,a3,254
    607c:	06069e63          	bnez	a3,60f8 <__subsf3+0x3b4>
    6080:	06041263          	bnez	s0,60e4 <__subsf3+0x3a0>
    6084:	02079463          	bnez	a5,60ac <__subsf3+0x368>
    6088:	00000493          	li	s1,0
    608c:	e40708e3          	beqz	a4,5edc <__subsf3+0x198>
    6090:	00058493          	mv	s1,a1
    6094:	00375793          	srli	a5,a4,0x3
    6098:	0ff00713          	li	a4,255
    609c:	e4e410e3          	bne	s0,a4,5edc <__subsf3+0x198>
    60a0:	e2078ee3          	beqz	a5,5edc <__subsf3+0x198>
    60a4:	004007b7          	lui	a5,0x400
    60a8:	0340006f          	j	60dc <__subsf3+0x398>
    60ac:	ea0702e3          	beqz	a4,5f50 <__subsf3+0x20c>
    60b0:	40e786b3          	sub	a3,a5,a4
    60b4:	00569613          	slli	a2,a3,0x5
    60b8:	00065c63          	bgez	a2,60d0 <__subsf3+0x38c>
    60bc:	40f707b3          	sub	a5,a4,a5
    60c0:	00058493          	mv	s1,a1
    60c4:	00000413          	li	s0,0
    60c8:	e0078ae3          	beqz	a5,5edc <__subsf3+0x198>
    60cc:	e6dff06f          	j	5f38 <__subsf3+0x1f4>
    60d0:	00068713          	mv	a4,a3
    60d4:	fc0690e3          	bnez	a3,6094 <__subsf3+0x350>
    60d8:	00000793          	li	a5,0
    60dc:	00000493          	li	s1,0
    60e0:	dfdff06f          	j	5edc <__subsf3+0x198>
    60e4:	e2079ae3          	bnez	a5,5f18 <__subsf3+0x1d4>
    60e8:	00000493          	li	s1,0
    60ec:	0ff00413          	li	s0,255
    60f0:	004007b7          	lui	a5,0x400
    60f4:	de9ff06f          	j	5edc <__subsf3+0x198>
    60f8:	40e78933          	sub	s2,a5,a4
    60fc:	00591693          	slli	a3,s2,0x5
    6100:	0406d263          	bgez	a3,6144 <__subsf3+0x400>
    6104:	40f70933          	sub	s2,a4,a5
    6108:	00058493          	mv	s1,a1
    610c:	00090513          	mv	a0,s2
    6110:	2e0000ef          	jal	63f0 <__clzsi2>
    6114:	ffb50513          	addi	a0,a0,-5 # 3fffffb <__stack_top+0x3fefffb>
    6118:	00a91933          	sll	s2,s2,a0
    611c:	02854a63          	blt	a0,s0,6150 <__subsf3+0x40c>
    6120:	40850533          	sub	a0,a0,s0
    6124:	00150513          	addi	a0,a0,1
    6128:	02000713          	li	a4,32
    612c:	40a70733          	sub	a4,a4,a0
    6130:	00a957b3          	srl	a5,s2,a0
    6134:	00e91933          	sll	s2,s2,a4
    6138:	01203933          	snez	s2,s2
    613c:	0127e7b3          	or	a5,a5,s2
    6140:	f85ff06f          	j	60c4 <__subsf3+0x380>
    6144:	fc0914e3          	bnez	s2,610c <__subsf3+0x3c8>
    6148:	00000413          	li	s0,0
    614c:	f8dff06f          	j	60d8 <__subsf3+0x394>
    6150:	fc0007b7          	lui	a5,0xfc000
    6154:	fff78793          	addi	a5,a5,-1 # fbffffff <__heap_end+0xe7ffffff>
    6158:	40a40433          	sub	s0,s0,a0
    615c:	00f977b3          	and	a5,s2,a5
    6160:	dd9ff06f          	j	5f38 <__subsf3+0x1f4>
    6164:	00070793          	mv	a5,a4
    6168:	f5dff06f          	j	60c4 <__subsf3+0x380>
    616c:	00058493          	mv	s1,a1
    6170:	00060413          	mv	s0,a2
    6174:	f21ff06f          	j	6094 <__subsf3+0x350>
    6178:	00068413          	mv	s0,a3
    617c:	00000793          	li	a5,0
    6180:	d5dff06f          	j	5edc <__subsf3+0x198>

00006184 <__fixsfsi>:
    6184:	00800637          	lui	a2,0x800
    6188:	01755713          	srli	a4,a0,0x17
    618c:	fff60793          	addi	a5,a2,-1 # 7fffff <__stack_top+0x7effff>
    6190:	0ff77713          	zext.b	a4,a4
    6194:	07e00593          	li	a1,126
    6198:	00a7f7b3          	and	a5,a5,a0
    619c:	01f55693          	srli	a3,a0,0x1f
    61a0:	04e5d663          	bge	a1,a4,61ec <__fixsfsi+0x68>
    61a4:	09d00593          	li	a1,157
    61a8:	00e5da63          	bge	a1,a4,61bc <__fixsfsi+0x38>
    61ac:	80000537          	lui	a0,0x80000
    61b0:	fff50513          	addi	a0,a0,-1 # 7fffffff <__heap_end+0x6bffffff>
    61b4:	00a68533          	add	a0,a3,a0
    61b8:	00008067          	ret
    61bc:	00c7e533          	or	a0,a5,a2
    61c0:	09500793          	li	a5,149
    61c4:	00e7dc63          	bge	a5,a4,61dc <__fixsfsi+0x58>
    61c8:	f6a70713          	addi	a4,a4,-150
    61cc:	00e51533          	sll	a0,a0,a4
    61d0:	02068063          	beqz	a3,61f0 <__fixsfsi+0x6c>
    61d4:	40a00533          	neg	a0,a0
    61d8:	00008067          	ret
    61dc:	09600793          	li	a5,150
    61e0:	40e787b3          	sub	a5,a5,a4
    61e4:	00f55533          	srl	a0,a0,a5
    61e8:	fe9ff06f          	j	61d0 <__fixsfsi+0x4c>
    61ec:	00000513          	li	a0,0
    61f0:	00008067          	ret

000061f4 <__floatsisf>:
    61f4:	ff010113          	addi	sp,sp,-16
    61f8:	00112623          	sw	ra,12(sp)
    61fc:	00812423          	sw	s0,8(sp)
    6200:	00912223          	sw	s1,4(sp)
    6204:	00050793          	mv	a5,a0
    6208:	0e050463          	beqz	a0,62f0 <__floatsisf+0xfc>
    620c:	41f55713          	srai	a4,a0,0x1f
    6210:	00a74433          	xor	s0,a4,a0
    6214:	40e40433          	sub	s0,s0,a4
    6218:	01f55493          	srli	s1,a0,0x1f
    621c:	00040513          	mv	a0,s0
    6220:	1d0000ef          	jal	63f0 <__clzsi2>
    6224:	09e00793          	li	a5,158
    6228:	40a787b3          	sub	a5,a5,a0
    622c:	09600713          	li	a4,150
    6230:	04f74063          	blt	a4,a5,6270 <__floatsisf+0x7c>
    6234:	00800693          	li	a3,8
    6238:	0cd50263          	beq	a0,a3,62fc <__floatsisf+0x108>
    623c:	ff850513          	addi	a0,a0,-8
    6240:	00a41433          	sll	s0,s0,a0
    6244:	00941413          	slli	s0,s0,0x9
    6248:	00945413          	srli	s0,s0,0x9
    624c:	01779793          	slli	a5,a5,0x17
    6250:	00c12083          	lw	ra,12(sp)
    6254:	0087e7b3          	or	a5,a5,s0
    6258:	00812403          	lw	s0,8(sp)
    625c:	01f49513          	slli	a0,s1,0x1f
    6260:	00a7e533          	or	a0,a5,a0
    6264:	00412483          	lw	s1,4(sp)
    6268:	01010113          	addi	sp,sp,16
    626c:	00008067          	ret
    6270:	09900713          	li	a4,153
    6274:	06f75463          	bge	a4,a5,62dc <__floatsisf+0xe8>
    6278:	01b50713          	addi	a4,a0,27
    627c:	00500693          	li	a3,5
    6280:	00e41733          	sll	a4,s0,a4
    6284:	40a686b3          	sub	a3,a3,a0
    6288:	00e03733          	snez	a4,a4
    628c:	00d45433          	srl	s0,s0,a3
    6290:	00876733          	or	a4,a4,s0
    6294:	fc000437          	lui	s0,0xfc000
    6298:	fff40413          	addi	s0,s0,-1 # fbffffff <__heap_end+0xe7ffffff>
    629c:	00777693          	andi	a3,a4,7
    62a0:	00877433          	and	s0,a4,s0
    62a4:	04068263          	beqz	a3,62e8 <__floatsisf+0xf4>
    62a8:	00f77713          	andi	a4,a4,15
    62ac:	00400693          	li	a3,4
    62b0:	02d70c63          	beq	a4,a3,62e8 <__floatsisf+0xf4>
    62b4:	00d40433          	add	s0,s0,a3
    62b8:	00541693          	slli	a3,s0,0x5
    62bc:	00345713          	srli	a4,s0,0x3
    62c0:	0206d463          	bgez	a3,62e8 <__floatsisf+0xf4>
    62c4:	1f800437          	lui	s0,0x1f800
    62c8:	09f00793          	li	a5,159
    62cc:	fff40413          	addi	s0,s0,-1 # 1f7fffff <__heap_end+0xb7fffff>
    62d0:	40a787b3          	sub	a5,a5,a0
    62d4:	00877433          	and	s0,a4,s0
    62d8:	f6dff06f          	j	6244 <__floatsisf+0x50>
    62dc:	ffb50713          	addi	a4,a0,-5
    62e0:	00e41733          	sll	a4,s0,a4
    62e4:	fb1ff06f          	j	6294 <__floatsisf+0xa0>
    62e8:	00345413          	srli	s0,s0,0x3
    62ec:	f59ff06f          	j	6244 <__floatsisf+0x50>
    62f0:	00000493          	li	s1,0
    62f4:	00000413          	li	s0,0
    62f8:	f4dff06f          	j	6244 <__floatsisf+0x50>
    62fc:	00070793          	mv	a5,a4
    6300:	f45ff06f          	j	6244 <__floatsisf+0x50>

00006304 <__extendsfdf2>:
    6304:	01755713          	srli	a4,a0,0x17
    6308:	0ff77713          	zext.b	a4,a4
    630c:	fe010113          	addi	sp,sp,-32
    6310:	00170793          	addi	a5,a4,1
    6314:	00812c23          	sw	s0,24(sp)
    6318:	00912a23          	sw	s1,20(sp)
    631c:	00951413          	slli	s0,a0,0x9
    6320:	00112e23          	sw	ra,28(sp)
    6324:	01212823          	sw	s2,16(sp)
    6328:	01312623          	sw	s3,12(sp)
    632c:	0fe7f793          	andi	a5,a5,254
    6330:	00945413          	srli	s0,s0,0x9
    6334:	01f55493          	srli	s1,a0,0x1f
    6338:	04078663          	beqz	a5,6384 <__extendsfdf2+0x80>
    633c:	00345793          	srli	a5,s0,0x3
    6340:	38070713          	addi	a4,a4,896
    6344:	01d41413          	slli	s0,s0,0x1d
    6348:	00c79793          	slli	a5,a5,0xc
    634c:	00c7d793          	srli	a5,a5,0xc
    6350:	01471713          	slli	a4,a4,0x14
    6354:	01f49513          	slli	a0,s1,0x1f
    6358:	00f76733          	or	a4,a4,a5
    635c:	01c12083          	lw	ra,28(sp)
    6360:	00a767b3          	or	a5,a4,a0
    6364:	00040513          	mv	a0,s0
    6368:	01812403          	lw	s0,24(sp)
    636c:	01412483          	lw	s1,20(sp)
    6370:	01012903          	lw	s2,16(sp)
    6374:	00c12983          	lw	s3,12(sp)
    6378:	00078593          	mv	a1,a5
    637c:	02010113          	addi	sp,sp,32
    6380:	00008067          	ret
    6384:	04071663          	bnez	a4,63d0 <__extendsfdf2+0xcc>
    6388:	00000793          	li	a5,0
    638c:	fa040ee3          	beqz	s0,6348 <__extendsfdf2+0x44>
    6390:	00040513          	mv	a0,s0
    6394:	05c000ef          	jal	63f0 <__clzsi2>
    6398:	00a00793          	li	a5,10
    639c:	02a7c263          	blt	a5,a0,63c0 <__extendsfdf2+0xbc>
    63a0:	00b00793          	li	a5,11
    63a4:	40a787b3          	sub	a5,a5,a0
    63a8:	01550713          	addi	a4,a0,21
    63ac:	00f457b3          	srl	a5,s0,a5
    63b0:	00e41433          	sll	s0,s0,a4
    63b4:	38900713          	li	a4,905
    63b8:	40a70733          	sub	a4,a4,a0
    63bc:	f8dff06f          	j	6348 <__extendsfdf2+0x44>
    63c0:	ff550793          	addi	a5,a0,-11
    63c4:	00f417b3          	sll	a5,s0,a5
    63c8:	00000413          	li	s0,0
    63cc:	fe9ff06f          	j	63b4 <__extendsfdf2+0xb0>
    63d0:	00000793          	li	a5,0
    63d4:	00040a63          	beqz	s0,63e8 <__extendsfdf2+0xe4>
    63d8:	00345793          	srli	a5,s0,0x3
    63dc:	00080737          	lui	a4,0x80
    63e0:	01d41413          	slli	s0,s0,0x1d
    63e4:	00e7e7b3          	or	a5,a5,a4
    63e8:	7ff00713          	li	a4,2047
    63ec:	f5dff06f          	j	6348 <__extendsfdf2+0x44>

000063f0 <__clzsi2>:
    63f0:	000107b7          	lui	a5,0x10
    63f4:	02f57a63          	bgeu	a0,a5,6428 <__clzsi2+0x38>
    63f8:	10053793          	sltiu	a5,a0,256
    63fc:	0017b793          	seqz	a5,a5
    6400:	00379793          	slli	a5,a5,0x3
    6404:	00007737          	lui	a4,0x7
    6408:	02000693          	li	a3,32
    640c:	40f686b3          	sub	a3,a3,a5
    6410:	00f55533          	srl	a0,a0,a5
    6414:	be070793          	addi	a5,a4,-1056 # 6be0 <__clz_tab>
    6418:	00a787b3          	add	a5,a5,a0
    641c:	0007c503          	lbu	a0,0(a5) # 10000 <__stack_top>
    6420:	40a68533          	sub	a0,a3,a0
    6424:	00008067          	ret
    6428:	01000737          	lui	a4,0x1000
    642c:	01800793          	li	a5,24
    6430:	fce57ae3          	bgeu	a0,a4,6404 <__clzsi2+0x14>
    6434:	01000793          	li	a5,16
    6438:	fcdff06f          	j	6404 <__clzsi2+0x14>
    643c:	6950                	.insn	2, 0x6950
    643e:	56526f63          	bltu	tp,t0,69bc <__clzsi2+0x5cc>
    6442:	6f203233          	.insn	4, 0x6f203233
    6446:	206e                	.insn	2, 0x206e
    6448:	6e41                	.insn	2, 0x6e41
    644a:	6c61                	.insn	2, 0x6c61
    644c:	6575676f          	jal	a4,5d2a2 <__stack_top+0x4d2a2>
    6450:	5020                	.insn	2, 0x5020
    6452:	656b636f          	jal	t1,bcaa8 <__stack_top+0xacaa8>
    6456:	0a74                	.insn	2, 0x0a74
    6458:	0000                	.insn	2, 0x
    645a:	0000                	.insn	2, 0x
    645c:	3d3d                	.insn	2, 0x3d3d
    645e:	3d3d                	.insn	2, 0x3d3d
    6460:	3d3d                	.insn	2, 0x3d3d
    6462:	3d3d                	.insn	2, 0x3d3d
    6464:	3d3d                	.insn	2, 0x3d3d
    6466:	3d3d                	.insn	2, 0x3d3d
    6468:	3d3d                	.insn	2, 0x3d3d
    646a:	3d3d                	.insn	2, 0x3d3d
    646c:	3d3d                	.insn	2, 0x3d3d
    646e:	3d3d                	.insn	2, 0x3d3d
    6470:	3d3d                	.insn	2, 0x3d3d
    6472:	3d3d                	.insn	2, 0x3d3d
    6474:	3d3d                	.insn	2, 0x3d3d
    6476:	0a3d                	.insn	2, 0x0a3d
    6478:	0000                	.insn	2, 0x
    647a:	0000                	.insn	2, 0x
    647c:	000a                	.insn	2, 0x000a
    647e:	0000                	.insn	2, 0x
    6480:	6e28                	.insn	2, 0x6e28
    6482:	6c75                	.insn	2, 0x6c75
    6484:	296c                	.insn	2, 0x296c
    6486:	0000                	.insn	2, 0x
    6488:	3130                	.insn	2, 0x3130
    648a:	3332                	.insn	2, 0x3332
    648c:	3534                	.insn	2, 0x3534
    648e:	3736                	.insn	2, 0x3736
    6490:	3938                	.insn	2, 0x3938
    6492:	4241                	.insn	2, 0x4241
    6494:	46454443          	.insn	4, 0x46454443
    6498:	0000                	.insn	2, 0x
    649a:	0000                	.insn	2, 0x
    649c:	3130                	.insn	2, 0x3130
    649e:	3332                	.insn	2, 0x3332
    64a0:	3534                	.insn	2, 0x3534
    64a2:	3736                	.insn	2, 0x3736
    64a4:	3938                	.insn	2, 0x3938
    64a6:	6261                	.insn	2, 0x6261
    64a8:	66656463          	bltu	a0,t1,6b10 <__clzsi2+0x720>
    64ac:	0000                	.insn	2, 0x
    64ae:	0000                	.insn	2, 0x
    64b0:	65636e4f          	.insn	4, 0x65636e4f
    64b4:	7520                	.insn	2, 0x7520
    64b6:	6f70                	.insn	2, 0x6f70
    64b8:	206e                	.insn	2, 0x206e
    64ba:	2061                	.insn	2, 0x2061
    64bc:	6974                	.insn	2, 0x6974
    64be:	656d                	.insn	2, 0x656d
    64c0:	0000                	.insn	2, 0x
    64c2:	0000                	.insn	2, 0x
    64c4:	6c6c                	.insn	2, 0x6c6c
    64c6:	6d61                	.insn	2, 0x6d61
    64c8:	3261                	.insn	2, 0x3261
    64ca:	632e                	.insn	2, 0x632e
    64cc:	6620                	.insn	2, 0x6620
    64ce:	4120726f          	jal	tp,d8e0 <__bss_end+0x2b48>
    64d2:	616e                	.insn	2, 0x616e
    64d4:	6f6c                	.insn	2, 0x6f6c
    64d6:	20657567          	.insn	4, 0x20657567
    64da:	6f50                	.insn	2, 0x6f50
    64dc:	74656b63          	bltu	a0,t1,6c32 <__clz_tab+0x52>
    64e0:	000a                	.insn	2, 0x000a
    64e2:	0000                	.insn	2, 0x
    64e4:	3d3d                	.insn	2, 0x3d3d
    64e6:	3d3d                	.insn	2, 0x3d3d
    64e8:	3d3d                	.insn	2, 0x3d3d
    64ea:	3d3d                	.insn	2, 0x3d3d
    64ec:	3d3d                	.insn	2, 0x3d3d
    64ee:	3d3d                	.insn	2, 0x3d3d
    64f0:	3d3d                	.insn	2, 0x3d3d
    64f2:	3d3d                	.insn	2, 0x3d3d
    64f4:	3d3d                	.insn	2, 0x3d3d
    64f6:	3d3d                	.insn	2, 0x3d3d
    64f8:	3d3d                	.insn	2, 0x3d3d
    64fa:	3d3d                	.insn	2, 0x3d3d
    64fc:	3d3d                	.insn	2, 0x3d3d
    64fe:	3d3d                	.insn	2, 0x3d3d
    6500:	0a0a                	.insn	2, 0x0a0a
    6502:	0000                	.insn	2, 0x
    6504:	74696157          	.insn	4, 0x74696157
    6508:	6e69                	.insn	2, 0x6e69
    650a:	6f662067          	.insn	4, 0x6f662067
    650e:	2072                	.insn	2, 0x2072
    6510:	41524453          	.insn	4, 0x41524453
    6514:	2e4d                	.insn	2, 0x2e4d
    6516:	2e2e                	.insn	2, 0x2e2e
    6518:	000a                	.insn	2, 0x000a
    651a:	0000                	.insn	2, 0x
    651c:	41524453          	.insn	4, 0x41524453
    6520:	204d                	.insn	2, 0x204d
    6522:	6572                	.insn	2, 0x6572
    6524:	6461                	.insn	2, 0x6461
    6526:	2e79                	.insn	2, 0x2e79
    6528:	000a                	.insn	2, 0x000a
    652a:	0000                	.insn	2, 0x
    652c:	74696157          	.insn	4, 0x74696157
    6530:	6e69                	.insn	2, 0x6e69
    6532:	6f662067          	.insn	4, 0x6f662067
    6536:	2072                	.insn	2, 0x2072
    6538:	6164                	.insn	2, 0x6164
    653a:	6174                	.insn	2, 0x6174
    653c:	7320                	.insn	2, 0x7320
    653e:	6f6c                	.insn	2, 0x6f6c
    6540:	7374                	.insn	2, 0x7374
    6542:	2e2e                	.insn	2, 0x2e2e
    6544:	0a2e                	.insn	2, 0x0a2e
    6546:	0000                	.insn	2, 0x
    6548:	2020                	.insn	2, 0x2020
    654a:	5245                	.insn	2, 0x5245
    654c:	4f52                	.insn	2, 0x4f52
    654e:	3a52                	.insn	2, 0x3a52
    6550:	5420                	.insn	2, 0x5420
    6552:	6d69                	.insn	2, 0x6d69
    6554:	6f65                	.insn	2, 0x6f65
    6556:	7475                	.insn	2, 0x7475
    6558:	7720                	.insn	2, 0x7720
    655a:	6961                	.insn	2, 0x6961
    655c:	6974                	.insn	2, 0x6974
    655e:	676e                	.insn	2, 0x676e
    6560:	6620                	.insn	2, 0x6620
    6562:	6420726f          	jal	tp,dba4 <__bss_end+0x2e0c>
    6566:	7461                	.insn	2, 0x7461
    6568:	2061                	.insn	2, 0x2061
    656a:	746f6c73          	.insn	4, 0x746f6c73
    656e:	000a2173          	.insn	4, 0x000a2173
    6572:	0000                	.insn	2, 0x
    6574:	6144                	.insn	2, 0x6144
    6576:	6174                	.insn	2, 0x6174
    6578:	7320                	.insn	2, 0x7320
    657a:	6f6c                	.insn	2, 0x6f6c
    657c:	7374                	.insn	2, 0x7374
    657e:	6c20                	.insn	2, 0x6c20
    6580:	6564616f          	jal	sp,4cbd6 <__stack_top+0x3cbd6>
    6584:	2e64                	.insn	2, 0x2e64
    6586:	000a                	.insn	2, 0x000a
    6588:	6556                	.insn	2, 0x6556
    658a:	6972                	.insn	2, 0x6972
    658c:	7966                	.insn	2, 0x7966
    658e:	6e69                	.insn	2, 0x6e69
    6590:	6f6d2067          	.insn	4, 0x6f6d2067
    6594:	6564                	.insn	2, 0x6564
    6596:	206c                	.insn	2, 0x206c
    6598:	6164                	.insn	2, 0x6164
    659a:	6174                	.insn	2, 0x6174
    659c:	2e2e                	.insn	2, 0x2e2e
    659e:	0a2e                	.insn	2, 0x0a2e
    65a0:	0000                	.insn	2, 0x
    65a2:	0000                	.insn	2, 0x
    65a4:	2020                	.insn	2, 0x2020
    65a6:	6f4d                	.insn	2, 0x6f4d
    65a8:	6564                	.insn	2, 0x6564
    65aa:	206c                	.insn	2, 0x206c
    65ac:	6568                	.insn	2, 0x6568
    65ae:	6461                	.insn	2, 0x6461
    65b0:	7265                	.insn	2, 0x7265
    65b2:	205d305b          	.insn	4, 0x205d305b
    65b6:	6428                	.insn	2, 0x6428
    65b8:	6d69                	.insn	2, 0x6d69
    65ba:	3a29                	.insn	2, 0x3a29
    65bc:	2520                	.insn	2, 0x2520
    65be:	0a64                	.insn	2, 0x0a64
    65c0:	0000                	.insn	2, 0x
    65c2:	0000                	.insn	2, 0x
    65c4:	2020                	.insn	2, 0x2020
    65c6:	5245                	.insn	2, 0x5245
    65c8:	4f52                	.insn	2, 0x4f52
    65ca:	3a52                	.insn	2, 0x3a52
    65cc:	4920                	.insn	2, 0x4920
    65ce:	766e                	.insn	2, 0x766e
    65d0:	6c61                	.insn	2, 0x6c61
    65d2:	6469                	.insn	2, 0x6469
    65d4:	6d20                	.insn	2, 0x6d20
    65d6:	6c65646f          	jal	s0,5cc9c <__stack_top+0x4cc9c>
    65da:	6420                	.insn	2, 0x6420
    65dc:	7461                	.insn	2, 0x7461
    65de:	2161                	.insn	2, 0x2161
    65e0:	000a                	.insn	2, 0x000a
    65e2:	0000                	.insn	2, 0x
    65e4:	2020                	.insn	2, 0x2020
    65e6:	4328                	.insn	2, 0x4328
    65e8:	6568                	.insn	2, 0x6568
    65ea:	74206b63          	bltu	zero,sp,6d40 <__text_end+0x60>
    65ee:	6168                	.insn	2, 0x6168
    65f0:	2074                	.insn	2, 0x2074
    65f2:	6f6d                	.insn	2, 0x6f6d
    65f4:	6564                	.insn	2, 0x6564
    65f6:	2e6c                	.insn	2, 0x2e6c
    65f8:	6962                	.insn	2, 0x6962
    65fa:	206e                	.insn	2, 0x206e
    65fc:	7369                	.insn	2, 0x7369
    65fe:	6920                	.insn	2, 0x6920
    6600:	206e                	.insn	2, 0x206e
    6602:	7373412f          	.insn	4, 0x7373412f
    6606:	7465                	.insn	2, 0x7465
    6608:	6f682f73          	.insn	4, 0x6f682f73
    660c:	656d                	.insn	2, 0x656d
    660e:	7262                	.insn	2, 0x7262
    6610:	7765                	.insn	2, 0x7765
    6612:	6d6f632f          	.insn	4, 0x6d6f632f
    6616:	6f6d                	.insn	2, 0x6f6d
    6618:	2f6e                	.insn	2, 0x2f6e
    661a:	0a29                	.insn	2, 0x0a29
    661c:	0000                	.insn	2, 0x
    661e:	0000                	.insn	2, 0x
    6620:	2020                	.insn	2, 0x2020
    6622:	6f4d                	.insn	2, 0x6f4d
    6624:	6564                	.insn	2, 0x6564
    6626:	206c                	.insn	2, 0x206c
    6628:	6164                	.insn	2, 0x6164
    662a:	6174                	.insn	2, 0x6174
    662c:	7620                	.insn	2, 0x7620
    662e:	7265                	.insn	2, 0x7265
    6630:	6669                	.insn	2, 0x6669
    6632:	6569                	.insn	2, 0x6569
    6634:	2164                	.insn	2, 0x2164
    6636:	000a                	.insn	2, 0x000a
    6638:	6554                	.insn	2, 0x6554
    663a:	6e697473          	.insn	4, 0x6e697473
    663e:	44532067          	.insn	4, 0x44532067
    6642:	4152                	.insn	2, 0x4152
    6644:	204d                	.insn	2, 0x204d
    6646:	74697277          	.insn	4, 0x74697277
    664a:	2e65                	.insn	2, 0x2e65
    664c:	2e2e                	.insn	2, 0x2e2e
    664e:	000a                	.insn	2, 0x000a
    6650:	2020                	.insn	2, 0x2020
    6652:	746f7257          	.insn	4, 0x746f7257
    6656:	2065                	.insn	2, 0x2065
    6658:	7830                	.insn	2, 0x7830
    665a:	3025                	.insn	2, 0x3025
    665c:	5838                	.insn	2, 0x5838
    665e:	202c                	.insn	2, 0x202c
    6660:	6572                	.insn	2, 0x6572
    6662:	6461                	.insn	2, 0x6461
    6664:	6220                	.insn	2, 0x6220
    6666:	6361                	.insn	2, 0x6361
    6668:	7830206b          	.insn	4, 0x7830206b
    666c:	3025                	.insn	2, 0x3025
    666e:	5838                	.insn	2, 0x5838
    6670:	000a                	.insn	2, 0x000a
    6672:	0000                	.insn	2, 0x
    6674:	2020                	.insn	2, 0x2020
    6676:	5245                	.insn	2, 0x5245
    6678:	4f52                	.insn	2, 0x4f52
    667a:	3a52                	.insn	2, 0x3a52
    667c:	5320                	.insn	2, 0x5320
    667e:	5244                	.insn	2, 0x5244
    6680:	4d41                	.insn	2, 0x4d41
    6682:	7720                	.insn	2, 0x7720
    6684:	6972                	.insn	2, 0x6972
    6686:	6574                	.insn	2, 0x6574
    6688:	6620                	.insn	2, 0x6620
    668a:	6961                	.insn	2, 0x6961
    668c:	656c                	.insn	2, 0x656c
    668e:	2164                	.insn	2, 0x2164
    6690:	000a                	.insn	2, 0x000a
    6692:	0000                	.insn	2, 0x
    6694:	2020                	.insn	2, 0x2020
    6696:	41524453          	.insn	4, 0x41524453
    669a:	204d                	.insn	2, 0x204d
    669c:	74697277          	.insn	4, 0x74697277
    66a0:	2065                	.insn	2, 0x2065
    66a2:	0a214b4f          	.insn	4, 0x0a214b4f
    66a6:	0000                	.insn	2, 0x
    66a8:	6e49                	.insn	2, 0x6e49
    66aa:	7469                	.insn	2, 0x7469
    66ac:	6169                	.insn	2, 0x6169
    66ae:	696c                	.insn	2, 0x696c
    66b0:	697a                	.insn	2, 0x697a
    66b2:	676e                	.insn	2, 0x676e
    66b4:	6820                	.insn	2, 0x6820
    66b6:	6165                	.insn	2, 0x6165
    66b8:	2070                	.insn	2, 0x2070
    66ba:	7461                	.insn	2, 0x7461
    66bc:	3020                	.insn	2, 0x3020
    66be:	2578                	.insn	2, 0x2578
    66c0:	3830                	.insn	2, 0x3830
    66c2:	2c58                	.insn	2, 0x2c58
    66c4:	7320                	.insn	2, 0x7320
    66c6:	7a69                	.insn	2, 0x7a69
    66c8:	2065                	.insn	2, 0x2065
    66ca:	6425                	.insn	2, 0x6425
    66cc:	6220                	.insn	2, 0x6220
    66ce:	7479                	.insn	2, 0x7479
    66d0:	7365                	.insn	2, 0x7365
    66d2:	000a                	.insn	2, 0x000a
    66d4:	6548                	.insn	2, 0x6548
    66d6:	7061                	.insn	2, 0x7061
    66d8:	6920                	.insn	2, 0x6920
    66da:	696e                	.insn	2, 0x696e
    66dc:	6974                	.insn	2, 0x6974
    66de:	6c61                	.insn	2, 0x6c61
    66e0:	7a69                	.insn	2, 0x7a69
    66e2:	6465                	.insn	2, 0x6465
    66e4:	203a                	.insn	2, 0x203a
    66e6:	7830                	.insn	2, 0x7830
    66e8:	3025                	.insn	2, 0x3025
    66ea:	5838                	.insn	2, 0x5838
    66ec:	2d20                	.insn	2, 0x2d20
    66ee:	3020                	.insn	2, 0x3020
    66f0:	2578                	.insn	2, 0x2578
    66f2:	3830                	.insn	2, 0x3830
    66f4:	0a58                	.insn	2, 0x0a58
    66f6:	0000                	.insn	2, 0x
    66f8:	6f4d                	.insn	2, 0x6f4d
    66fa:	6564                	.insn	2, 0x6564
    66fc:	206c                	.insn	2, 0x206c
    66fe:	7461                	.insn	2, 0x7461
    6700:	3020                	.insn	2, 0x3020
    6702:	2578                	.insn	2, 0x2578
    6704:	3830                	.insn	2, 0x3830
    6706:	0a58                	.insn	2, 0x0a58
    6708:	0000                	.insn	2, 0x
    670a:	0000                	.insn	2, 0x
    670c:	6f54                	.insn	2, 0x6f54
    670e:	696e656b          	.insn	4, 0x696e656b
    6712:	657a                	.insn	2, 0x657a
    6714:	2072                	.insn	2, 0x2072
    6716:	7461                	.insn	2, 0x7461
    6718:	3020                	.insn	2, 0x3020
    671a:	2578                	.insn	2, 0x2578
    671c:	3830                	.insn	2, 0x3830
    671e:	0a58                	.insn	2, 0x0a58
    6720:	0000                	.insn	2, 0x
    6722:	0000                	.insn	2, 0x
    6724:	7542                	.insn	2, 0x7542
    6726:	6c69                	.insn	2, 0x6c69
    6728:	6964                	.insn	2, 0x6964
    672a:	676e                	.insn	2, 0x676e
    672c:	7420                	.insn	2, 0x7420
    672e:	6172                	.insn	2, 0x6172
    6730:	736e                	.insn	2, 0x736e
    6732:	6f66                	.insn	2, 0x6f66
    6734:	6d72                	.insn	2, 0x6d72
    6736:	7265                	.insn	2, 0x7265
    6738:	2e2e                	.insn	2, 0x2e2e
    673a:	0a2e                	.insn	2, 0x0a2e
    673c:	0000                	.insn	2, 0x
    673e:	0000                	.insn	2, 0x
    6740:	2020                	.insn	2, 0x2020
    6742:	6552                	.insn	2, 0x6552
    6744:	6461                	.insn	2, 0x6461
    6746:	6e69                	.insn	2, 0x6e69
    6748:	6f632067          	.insn	4, 0x6f632067
    674c:	666e                	.insn	2, 0x666e
    674e:	6769                	.insn	2, 0x6769
    6750:	6620                	.insn	2, 0x6620
    6752:	6f72                	.insn	2, 0x6f72
    6754:	206d                	.insn	2, 0x206d
    6756:	41524453          	.insn	4, 0x41524453
    675a:	2e4d                	.insn	2, 0x2e4d
    675c:	2e2e                	.insn	2, 0x2e2e
    675e:	000a                	.insn	2, 0x000a
    6760:	2020                	.insn	2, 0x2020
    6762:	666e6f43          	.insn	4, 0x666e6f43
    6766:	6769                	.insn	2, 0x6769
    6768:	7020                	.insn	2, 0x7020
    676a:	7274                	.insn	2, 0x7274
    676c:	203a                	.insn	2, 0x203a
    676e:	7830                	.insn	2, 0x7830
    6770:	3025                	.insn	2, 0x3025
    6772:	5838                	.insn	2, 0x5838
    6774:	000a                	.insn	2, 0x000a
    6776:	0000                	.insn	2, 0x
    6778:	2020                	.insn	2, 0x2020
    677a:	6552                	.insn	2, 0x6552
    677c:	6461                	.insn	2, 0x6461
    677e:	6e69                	.insn	2, 0x6e69
    6780:	69642067          	.insn	4, 0x69642067
    6784:	2e6d                	.insn	2, 0x2e6d
    6786:	2e2e                	.insn	2, 0x2e2e
    6788:	000a                	.insn	2, 0x000a
    678a:	0000                	.insn	2, 0x
    678c:	2020                	.insn	2, 0x2020
    678e:	6964                	.insn	2, 0x6964
    6790:	3d6d                	.insn	2, 0x3d6d
    6792:	6425                	.insn	2, 0x6425
    6794:	000a                	.insn	2, 0x000a
    6796:	0000                	.insn	2, 0x
    6798:	2020                	.insn	2, 0x2020
    679a:	6f76                	.insn	2, 0x6f76
    679c:	5f626163          	bltu	tp,s6,6d7e <__text_end+0x9e>
    67a0:	657a6973          	.insn	4, 0x657a6973
    67a4:	253d                	.insn	2, 0x253d
    67a6:	2c64                	.insn	2, 0x2c64
    67a8:	7320                	.insn	2, 0x7320
    67aa:	6168                	.insn	2, 0x6168
    67ac:	6572                	.insn	2, 0x6572
    67ae:	3d64                	.insn	2, 0x3d64
    67b0:	6425                	.insn	2, 0x6425
    67b2:	000a                	.insn	2, 0x000a
    67b4:	2020                	.insn	2, 0x2020
    67b6:	614d                	.insn	2, 0x614d
    67b8:	7070                	.insn	2, 0x7070
    67ba:	6e69                	.insn	2, 0x6e69
    67bc:	65772067          	.insn	4, 0x65772067
    67c0:	6769                	.insn	2, 0x6769
    67c2:	7468                	.insn	2, 0x7468
    67c4:	74612073          	.insn	4, 0x74612073
    67c8:	3020                	.insn	2, 0x3020
    67ca:	2578                	.insn	2, 0x2578
    67cc:	3830                	.insn	2, 0x3830
    67ce:	2e58                	.insn	2, 0x2e58
    67d0:	2e2e                	.insn	2, 0x2e2e
    67d2:	000a                	.insn	2, 0x000a
    67d4:	2020                	.insn	2, 0x2020
    67d6:	6c41                	.insn	2, 0x6c41
    67d8:	6f6c                	.insn	2, 0x6f6c
    67da:	69746163          	bltu	s0,s7,6e5c <tok_copy_bram+0xd0>
    67de:	676e                	.insn	2, 0x676e
    67e0:	7220                	.insn	2, 0x7220
    67e2:	6e75                	.insn	2, 0x6e75
    67e4:	7320                	.insn	2, 0x7320
    67e6:	6174                	.insn	2, 0x6174
    67e8:	6574                	.insn	2, 0x6574
    67ea:	2e2e                	.insn	2, 0x2e2e
    67ec:	0a2e                	.insn	2, 0x0a2e
    67ee:	0000                	.insn	2, 0x
    67f0:	2020                	.insn	2, 0x2020
    67f2:	7552                	.insn	2, 0x7552
    67f4:	536e                	.insn	2, 0x536e
    67f6:	6174                	.insn	2, 0x6174
    67f8:	6574                	.insn	2, 0x6574
    67fa:	203a                	.insn	2, 0x203a
    67fc:	635f766b          	.insn	4, 0x635f766b
    6800:	6361                	.insn	2, 0x6361
    6802:	6568                	.insn	2, 0x6568
    6804:	253d                	.insn	2, 0x253d
    6806:	2064                	.insn	2, 0x2064
    6808:	3278                	.insn	2, 0x3278
    680a:	000a                	.insn	2, 0x000a
    680c:	5245                	.insn	2, 0x5245
    680e:	4f52                	.insn	2, 0x4f52
    6810:	3a52                	.insn	2, 0x3a52
    6812:	7320                	.insn	2, 0x7320
    6814:	7264                	.insn	2, 0x7264
    6816:	6d61                	.insn	2, 0x6d61
    6818:	615f 6c6c 636f      	.insn	6, 0x636f6c6c615f
    681e:	6620                	.insn	2, 0x6620
    6820:	6961                	.insn	2, 0x6961
    6822:	656c                	.insn	2, 0x656c
    6824:	2164                	.insn	2, 0x2164
    6826:	000a                	.insn	2, 0x000a
    6828:	2020                	.insn	2, 0x2020
    682a:	7254                	.insn	2, 0x7254
    682c:	6e61                	.insn	2, 0x6e61
    682e:	726f6673          	.insn	4, 0x726f6673
    6832:	656d                	.insn	2, 0x656d
    6834:	2072                	.insn	2, 0x2072
    6836:	7562                	.insn	2, 0x7562
    6838:	6c69                	.insn	2, 0x6c69
    683a:	2e74                	.insn	2, 0x2e74
    683c:	000a                	.insn	2, 0x000a
    683e:	0000                	.insn	2, 0x
    6840:	666e6f43          	.insn	4, 0x666e6f43
    6844:	6769                	.insn	2, 0x6769
    6846:	203a                	.insn	2, 0x203a
    6848:	6964                	.insn	2, 0x6964
    684a:	3d6d                	.insn	2, 0x3d6d
    684c:	6425                	.insn	2, 0x6425
    684e:	202c                	.insn	2, 0x202c
    6850:	6968                	.insn	2, 0x6968
    6852:	6464                	.insn	2, 0x6464
    6854:	6e65                	.insn	2, 0x6e65
    6856:	253d                	.insn	2, 0x253d
    6858:	2c64                	.insn	2, 0x2c64
    685a:	6c20                	.insn	2, 0x6c20
    685c:	7961                	.insn	2, 0x7961
    685e:	7265                	.insn	2, 0x7265
    6860:	64253d73          	.insn	4, 0x64253d73
    6864:	202c                	.insn	2, 0x202c
    6866:	6568                	.insn	2, 0x6568
    6868:	6461                	.insn	2, 0x6461
    686a:	64253d73          	.insn	4, 0x64253d73
    686e:	202c                	.insn	2, 0x202c
    6870:	6f76                	.insn	2, 0x6f76
    6872:	3d626163          	bltu	tp,s6,6c34 <__clz_tab+0x54>
    6876:	6425                	.insn	2, 0x6425
    6878:	202c                	.insn	2, 0x202c
    687a:	3d716573          	.insn	4, 0x3d716573
    687e:	6425                	.insn	2, 0x6425
    6880:	000a                	.insn	2, 0x000a
    6882:	0000                	.insn	2, 0x
    6884:	7542                	.insn	2, 0x7542
    6886:	6c69                	.insn	2, 0x6c69
    6888:	6964                	.insn	2, 0x6964
    688a:	676e                	.insn	2, 0x676e
    688c:	7420                	.insn	2, 0x7420
    688e:	6e656b6f          	jal	s6,5cf74 <__stack_top+0x4cf74>
    6892:	7a69                	.insn	2, 0x7a69
    6894:	7265                	.insn	2, 0x7265
    6896:	2e2e                	.insn	2, 0x2e2e
    6898:	0a2e                	.insn	2, 0x0a2e
    689a:	0000                	.insn	2, 0x
    689c:	2020                	.insn	2, 0x2020
    689e:	6f54                	.insn	2, 0x6f54
    68a0:	696e656b          	.insn	4, 0x696e656b
    68a4:	657a                	.insn	2, 0x657a
    68a6:	2072                	.insn	2, 0x2072
    68a8:	6568                	.insn	2, 0x6568
    68aa:	6461                	.insn	2, 0x6461
    68ac:	7265                	.insn	2, 0x7265
    68ae:	3a5d305b          	.insn	4, 0x3a5d305b
    68b2:	2520                	.insn	2, 0x2520
    68b4:	2064                	.insn	2, 0x2064
    68b6:	6d28                	.insn	2, 0x6d28
    68b8:	7861                	.insn	2, 0x7861
    68ba:	745f 6b6f 6e65      	.insn	6, 0x6e656b6f745f
    68c0:	6c5f 6e65 0a29      	.insn	6, 0x0a296e656c5f
    68c6:	0000                	.insn	2, 0x
    68c8:	5245                	.insn	2, 0x5245
    68ca:	4f52                	.insn	2, 0x4f52
    68cc:	3a52                	.insn	2, 0x3a52
    68ce:	7420                	.insn	2, 0x7420
    68d0:	6e656b6f          	jal	s6,5cfb6 <__stack_top+0x4cfb6>
    68d4:	7a69                	.insn	2, 0x7a69
    68d6:	7265                	.insn	2, 0x7265
    68d8:	7320                	.insn	2, 0x7320
    68da:	7264                	.insn	2, 0x7264
    68dc:	6d61                	.insn	2, 0x6d61
    68de:	615f 6c6c 636f      	.insn	6, 0x636f6c6c615f
    68e4:	6620                	.insn	2, 0x6620
    68e6:	6961                	.insn	2, 0x6961
    68e8:	656c                	.insn	2, 0x656c
    68ea:	2164                	.insn	2, 0x2164
    68ec:	000a                	.insn	2, 0x000a
    68ee:	0000                	.insn	2, 0x
    68f0:	6425                	.insn	2, 0x6425
    68f2:	002e                	.insn	2, 0x002e
    68f4:	450a                	.insn	2, 0x450a
    68f6:	5252                	.insn	2, 0x5252
    68f8:	203a524f          	.insn	4, 0x203a524f
    68fc:	6162                	.insn	2, 0x6162
    68fe:	2064                	.insn	2, 0x2064
    6900:	656c                	.insn	2, 0x656c
    6902:	206e                	.insn	2, 0x206e
    6904:	6425                	.insn	2, 0x6425
    6906:	6120                	.insn	2, 0x6120
    6908:	2074                	.insn	2, 0x2074
    690a:	6f74                	.insn	2, 0x6f74
    690c:	6425206b          	.insn	4, 0x6425206b
    6910:	000a                	.insn	2, 0x000a
    6912:	0000                	.insn	2, 0x
    6914:	450a                	.insn	2, 0x450a
    6916:	5252                	.insn	2, 0x5252
    6918:	203a524f          	.insn	4, 0x203a524f
    691c:	61726473          	.insn	4, 0x61726473
    6920:	5f6d                	.insn	2, 0x5f6d
    6922:	6c61                	.insn	2, 0x6c61
    6924:	6f6c                	.insn	2, 0x6f6c
    6926:	64252863          	.insn	4, 0x64252863
    692a:	2029                	.insn	2, 0x2029
    692c:	6166                	.insn	2, 0x6166
    692e:	6c69                	.insn	2, 0x6c69
    6930:	6465                	.insn	2, 0x6465
    6932:	6120                	.insn	2, 0x6120
    6934:	2074                	.insn	2, 0x2074
    6936:	6f74                	.insn	2, 0x6f74
    6938:	6425206b          	.insn	4, 0x6425206b
    693c:	000a                	.insn	2, 0x000a
    693e:	0000                	.insn	2, 0x
    6940:	6420                	.insn	2, 0x6420
    6942:	0a656e6f          	jal	t3,5c9e8 <__stack_top+0x4c9e8>
    6946:	0000                	.insn	2, 0x
    6948:	6f54                	.insn	2, 0x6f54
    694a:	206e656b          	.insn	4, 0x206e656b
    694e:	3034                	.insn	2, 0x3034
    6950:	3a35                	.insn	2, 0x3a35
    6952:	0020                	.insn	2, 0x0020
    6954:	3025                	.insn	2, 0x3025
    6956:	5832                	.insn	2, 0x5832
    6958:	0020                	.insn	2, 0x0020
    695a:	0000                	.insn	2, 0x
    695c:	7542                	.insn	2, 0x7542
    695e:	6c69                	.insn	2, 0x6c69
    6960:	6964                	.insn	2, 0x6964
    6962:	676e                	.insn	2, 0x676e
    6964:	7320                	.insn	2, 0x7320
    6966:	6d61                	.insn	2, 0x6d61
    6968:	6c70                	.insn	2, 0x6c70
    696a:	7265                	.insn	2, 0x7265
    696c:	2e2e                	.insn	2, 0x2e2e
    696e:	0a2e                	.insn	2, 0x0a2e
    6970:	0000                	.insn	2, 0x
    6972:	0000                	.insn	2, 0x
    6974:	2d0a                	.insn	2, 0x2d0a
    6976:	2d2d                	.insn	2, 0x2d2d
    6978:	4720                	.insn	2, 0x4720
    697a:	6e65                	.insn	2, 0x6e65
    697c:	7265                	.insn	2, 0x7265
    697e:	7461                	.insn	2, 0x7461
    6980:	6e69                	.insn	2, 0x6e69
    6982:	2d2d2067          	.insn	4, 0x2d2d2067
    6986:	0a2d                	.insn	2, 0x0a2d
    6988:	0000                	.insn	2, 0x
    698a:	0000                	.insn	2, 0x
    698c:	7250                	.insn	2, 0x7250
    698e:	74706d6f          	jal	s10,d8d4 <__bss_end+0x2b3c>
    6992:	203a                	.insn	2, 0x203a
    6994:	2522                	.insn	2, 0x2522
    6996:	0a0a2273          	.insn	4, 0x0a0a2273
    699a:	0000                	.insn	2, 0x
    699c:	0020                	.insn	2, 0x0020
    699e:	0000                	.insn	2, 0x
    69a0:	7325                	.insn	2, 0x7325
    69a2:	7325                	.insn	2, 0x7325
    69a4:	0000                	.insn	2, 0x
    69a6:	0000                	.insn	2, 0x
    69a8:	5245                	.insn	2, 0x5245
    69aa:	4f52                	.insn	2, 0x4f52
    69ac:	3a52                	.insn	2, 0x3a52
    69ae:	6520                	.insn	2, 0x6520
    69b0:	7078                	.insn	2, 0x7078
    69b2:	6365                	.insn	2, 0x6365
    69b4:	6574                	.insn	2, 0x6574
    69b6:	2064                	.insn	2, 0x2064
    69b8:	7461                	.insn	2, 0x7461
    69ba:	6c20                	.insn	2, 0x6c20
    69bc:	6165                	.insn	2, 0x6165
    69be:	31207473          	.insn	4, 0x31207473
    69c2:	7020                	.insn	2, 0x7020
    69c4:	6f72                	.insn	2, 0x6f72
    69c6:	706d                	.insn	2, 0x706d
    69c8:	2074                	.insn	2, 0x2074
    69ca:	6f74                	.insn	2, 0x6f74
    69cc:	0a6e656b          	.insn	4, 0x0a6e656b
    69d0:	0000                	.insn	2, 0x
    69d2:	0000                	.insn	2, 0x
    69d4:	303c                	.insn	2, 0x303c
    69d6:	2578                	.insn	2, 0x2578
    69d8:	3230                	.insn	2, 0x3230
    69da:	6868                	.insn	2, 0x6868
    69dc:	3e58                	.insn	2, 0x3e58
    69de:	0000                	.insn	2, 0x
    69e0:	7325                	.insn	2, 0x7325
    69e2:	0000                	.insn	2, 0x
    69e4:	65657053          	.insn	4, 0x65657053
    69e8:	3a64                	.insn	2, 0x3a64
    69ea:	2520                	.insn	2, 0x2520
    69ec:	2064                	.insn	2, 0x2064
    69ee:	6f74                	.insn	2, 0x6f74
    69f0:	0a732f6b          	.insn	4, 0x0a732f6b
    69f4:	0000                	.insn	2, 0x
    69f6:	0000                	.insn	2, 0x
    69f8:	430a                	.insn	2, 0x430a
    69fa:	656c                	.insn	2, 0x656c
    69fc:	6e61                	.insn	2, 0x6e61
    69fe:	6e69                	.insn	2, 0x6e69
    6a00:	70752067          	.insn	4, 0x70752067
    6a04:	2e2e                	.insn	2, 0x2e2e
    6a06:	0a2e                	.insn	2, 0x0a2e
    6a08:	0000                	.insn	2, 0x
    6a0a:	0000                	.insn	2, 0x
    6a0c:	6f44                	.insn	2, 0x6f44
    6a0e:	656e                	.insn	2, 0x656e
    6a10:	0a21                	.insn	2, 0x0a21
    6a12:	0000                	.insn	2, 0x
    6a14:	0634                	.insn	2, 0x0634
    6a16:	0000                	.insn	2, 0x
    6a18:	04d0                	.insn	2, 0x04d0
    6a1a:	0000                	.insn	2, 0x
    6a1c:	04d0                	.insn	2, 0x04d0
    6a1e:	0000                	.insn	2, 0x
    6a20:	04d0                	.insn	2, 0x04d0
    6a22:	0000                	.insn	2, 0x
    6a24:	04d0                	.insn	2, 0x04d0
    6a26:	0000                	.insn	2, 0x
    6a28:	04d0                	.insn	2, 0x04d0
    6a2a:	0000                	.insn	2, 0x
    6a2c:	04d0                	.insn	2, 0x04d0
    6a2e:	0000                	.insn	2, 0x
    6a30:	04d0                	.insn	2, 0x04d0
    6a32:	0000                	.insn	2, 0x
    6a34:	04d0                	.insn	2, 0x04d0
    6a36:	0000                	.insn	2, 0x
    6a38:	04d0                	.insn	2, 0x04d0
    6a3a:	0000                	.insn	2, 0x
    6a3c:	04d0                	.insn	2, 0x04d0
    6a3e:	0000                	.insn	2, 0x
    6a40:	061c                	.insn	2, 0x061c
    6a42:	0000                	.insn	2, 0x
    6a44:	04e4                	.insn	2, 0x04e4
    6a46:	0000                	.insn	2, 0x
    6a48:	04d0                	.insn	2, 0x04d0
    6a4a:	0000                	.insn	2, 0x
    6a4c:	04d0                	.insn	2, 0x04d0
    6a4e:	0000                	.insn	2, 0x
    6a50:	04d0                	.insn	2, 0x04d0
    6a52:	0000                	.insn	2, 0x
    6a54:	04d0                	.insn	2, 0x04d0
    6a56:	0000                	.insn	2, 0x
    6a58:	04e4                	.insn	2, 0x04e4
    6a5a:	0000                	.insn	2, 0x
    6a5c:	04d0                	.insn	2, 0x04d0
    6a5e:	0000                	.insn	2, 0x
    6a60:	04d0                	.insn	2, 0x04d0
    6a62:	0000                	.insn	2, 0x
    6a64:	04d0                	.insn	2, 0x04d0
    6a66:	0000                	.insn	2, 0x
    6a68:	04d0                	.insn	2, 0x04d0
    6a6a:	0000                	.insn	2, 0x
    6a6c:	04d0                	.insn	2, 0x04d0
    6a6e:	0000                	.insn	2, 0x
    6a70:	04d0                	.insn	2, 0x04d0
    6a72:	0000                	.insn	2, 0x
    6a74:	04d0                	.insn	2, 0x04d0
    6a76:	0000                	.insn	2, 0x
    6a78:	04d0                	.insn	2, 0x04d0
    6a7a:	0000                	.insn	2, 0x
    6a7c:	04d0                	.insn	2, 0x04d0
    6a7e:	0000                	.insn	2, 0x
    6a80:	05ec                	.insn	2, 0x05ec
    6a82:	0000                	.insn	2, 0x
    6a84:	04d0                	.insn	2, 0x04d0
    6a86:	0000                	.insn	2, 0x
    6a88:	0570                	.insn	2, 0x0570
    6a8a:	0000                	.insn	2, 0x
    6a8c:	04d0                	.insn	2, 0x04d0
    6a8e:	0000                	.insn	2, 0x
    6a90:	04d0                	.insn	2, 0x04d0
    6a92:	0000                	.insn	2, 0x
    6a94:	04fc                	.insn	2, 0x04fc
    6a96:	0000                	.insn	2, 0x
    6a98:	3930                	.insn	2, 0x3930
    6a9a:	0000                	.insn	2, 0x
    6a9c:	38a0                	.insn	2, 0x38a0
    6a9e:	0000                	.insn	2, 0x
    6aa0:	3888                	.insn	2, 0x3888
    6aa2:	0000                	.insn	2, 0x
    6aa4:	3888                	.insn	2, 0x3888
    6aa6:	0000                	.insn	2, 0x
    6aa8:	3888                	.insn	2, 0x3888
    6aaa:	0000                	.insn	2, 0x
    6aac:	3888                	.insn	2, 0x3888
    6aae:	0000                	.insn	2, 0x
    6ab0:	38a0                	.insn	2, 0x38a0
    6ab2:	0000                	.insn	2, 0x
    6ab4:	3888                	.insn	2, 0x3888
    6ab6:	0000                	.insn	2, 0x
    6ab8:	3888                	.insn	2, 0x3888
    6aba:	0000                	.insn	2, 0x
    6abc:	3888                	.insn	2, 0x3888
    6abe:	0000                	.insn	2, 0x
    6ac0:	3888                	.insn	2, 0x3888
    6ac2:	0000                	.insn	2, 0x
    6ac4:	3888                	.insn	2, 0x3888
    6ac6:	0000                	.insn	2, 0x
    6ac8:	3888                	.insn	2, 0x3888
    6aca:	0000                	.insn	2, 0x
    6acc:	3888                	.insn	2, 0x3888
    6ace:	0000                	.insn	2, 0x
    6ad0:	3888                	.insn	2, 0x3888
    6ad2:	0000                	.insn	2, 0x
    6ad4:	3888                	.insn	2, 0x3888
    6ad6:	0000                	.insn	2, 0x
    6ad8:	39c8                	.insn	2, 0x39c8
    6ada:	0000                	.insn	2, 0x
    6adc:	3888                	.insn	2, 0x3888
    6ade:	0000                	.insn	2, 0x
    6ae0:	394c                	.insn	2, 0x394c
    6ae2:	0000                	.insn	2, 0x
    6ae4:	3ae4                	.insn	2, 0x3ae4
    6ae6:	0000                	.insn	2, 0x
    6ae8:	3b24                	.insn	2, 0x3b24
    6aea:	0000                	.insn	2, 0x
    6aec:	3b24                	.insn	2, 0x3b24
    6aee:	0000                	.insn	2, 0x
    6af0:	3b24                	.insn	2, 0x3b24
    6af2:	0000                	.insn	2, 0x
    6af4:	3b24                	.insn	2, 0x3b24
    6af6:	0000                	.insn	2, 0x
    6af8:	3b24                	.insn	2, 0x3b24
    6afa:	0000                	.insn	2, 0x
    6afc:	3b24                	.insn	2, 0x3b24
    6afe:	0000                	.insn	2, 0x
    6b00:	3b24                	.insn	2, 0x3b24
    6b02:	0000                	.insn	2, 0x
    6b04:	3b24                	.insn	2, 0x3b24
    6b06:	0000                	.insn	2, 0x
    6b08:	3b24                	.insn	2, 0x3b24
    6b0a:	0000                	.insn	2, 0x
    6b0c:	3b24                	.insn	2, 0x3b24
    6b0e:	0000                	.insn	2, 0x
    6b10:	3b24                	.insn	2, 0x3b24
    6b12:	0000                	.insn	2, 0x
    6b14:	3b70                	.insn	2, 0x3b70
    6b16:	0000                	.insn	2, 0x
    6b18:	3b24                	.insn	2, 0x3b24
    6b1a:	0000                	.insn	2, 0x
    6b1c:	3c5c                	.insn	2, 0x3c5c
    6b1e:	0000                	.insn	2, 0x
    6b20:	3b24                	.insn	2, 0x3b24
    6b22:	0000                	.insn	2, 0x
    6b24:	3b24                	.insn	2, 0x3b24
    6b26:	0000                	.insn	2, 0x
    6b28:	3b70                	.insn	2, 0x3b70
    6b2a:	0000                	.insn	2, 0x
    6b2c:	3b24                	.insn	2, 0x3b24
    6b2e:	0000                	.insn	2, 0x
    6b30:	3b24                	.insn	2, 0x3b24
    6b32:	0000                	.insn	2, 0x
    6b34:	3b24                	.insn	2, 0x3b24
    6b36:	0000                	.insn	2, 0x
    6b38:	3b24                	.insn	2, 0x3b24
    6b3a:	0000                	.insn	2, 0x
    6b3c:	3b24                	.insn	2, 0x3b24
    6b3e:	0000                	.insn	2, 0x
    6b40:	3b24                	.insn	2, 0x3b24
    6b42:	0000                	.insn	2, 0x
    6b44:	3b24                	.insn	2, 0x3b24
    6b46:	0000                	.insn	2, 0x
    6b48:	3b24                	.insn	2, 0x3b24
    6b4a:	0000                	.insn	2, 0x
    6b4c:	3b24                	.insn	2, 0x3b24
    6b4e:	0000                	.insn	2, 0x
    6b50:	3b24                	.insn	2, 0x3b24
    6b52:	0000                	.insn	2, 0x
    6b54:	3b24                	.insn	2, 0x3b24
    6b56:	0000                	.insn	2, 0x
    6b58:	3b24                	.insn	2, 0x3b24
    6b5a:	0000                	.insn	2, 0x
    6b5c:	3b24                	.insn	2, 0x3b24
    6b5e:	0000                	.insn	2, 0x
    6b60:	3b24                	.insn	2, 0x3b24
    6b62:	0000                	.insn	2, 0x
    6b64:	3ae4                	.insn	2, 0x3ae4
    6b66:	0000                	.insn	2, 0x
    6b68:	5094                	.insn	2, 0x5094
    6b6a:	0000                	.insn	2, 0x
    6b6c:	4fb0                	.insn	2, 0x4fb0
    6b6e:	0000                	.insn	2, 0x
    6b70:	4f90                	.insn	2, 0x4f90
    6b72:	0000                	.insn	2, 0x
    6b74:	4fb0                	.insn	2, 0x4fb0
    6b76:	0000                	.insn	2, 0x
    6b78:	5080                	.insn	2, 0x5080
    6b7a:	0000                	.insn	2, 0x
    6b7c:	4fb0                	.insn	2, 0x4fb0
    6b7e:	0000                	.insn	2, 0x
    6b80:	4f90                	.insn	2, 0x4f90
    6b82:	0000                	.insn	2, 0x
    6b84:	5094                	.insn	2, 0x5094
    6b86:	0000                	.insn	2, 0x
    6b88:	5094                	.insn	2, 0x5094
    6b8a:	0000                	.insn	2, 0x
    6b8c:	5080                	.insn	2, 0x5080
    6b8e:	0000                	.insn	2, 0x
    6b90:	4f90                	.insn	2, 0x4f90
    6b92:	0000                	.insn	2, 0x
    6b94:	4fbc                	.insn	2, 0x4fbc
    6b96:	0000                	.insn	2, 0x
    6b98:	4fbc                	.insn	2, 0x4fbc
    6b9a:	0000                	.insn	2, 0x
    6b9c:	4fbc                	.insn	2, 0x4fbc
    6b9e:	0000                	.insn	2, 0x
    6ba0:	5080                	.insn	2, 0x5080
    6ba2:	0000                	.insn	2, 0x
    6ba4:	5874                	.insn	2, 0x5874
    6ba6:	0000                	.insn	2, 0x
    6ba8:	57e8                	.insn	2, 0x57e8
    6baa:	0000                	.insn	2, 0x
    6bac:	57cc                	.insn	2, 0x57cc
    6bae:	0000                	.insn	2, 0x
    6bb0:	57e8                	.insn	2, 0x57e8
    6bb2:	0000                	.insn	2, 0x
    6bb4:	5864                	.insn	2, 0x5864
    6bb6:	0000                	.insn	2, 0x
    6bb8:	57e8                	.insn	2, 0x57e8
    6bba:	0000                	.insn	2, 0x
    6bbc:	57cc                	.insn	2, 0x57cc
    6bbe:	0000                	.insn	2, 0x
    6bc0:	5874                	.insn	2, 0x5874
    6bc2:	0000                	.insn	2, 0x
    6bc4:	5874                	.insn	2, 0x5874
    6bc6:	0000                	.insn	2, 0x
    6bc8:	5864                	.insn	2, 0x5864
    6bca:	0000                	.insn	2, 0x
    6bcc:	57cc                	.insn	2, 0x57cc
    6bce:	0000                	.insn	2, 0x
    6bd0:	57f4                	.insn	2, 0x57f4
    6bd2:	0000                	.insn	2, 0x
    6bd4:	57f4                	.insn	2, 0x57f4
    6bd6:	0000                	.insn	2, 0x
    6bd8:	57f4                	.insn	2, 0x57f4
    6bda:	0000                	.insn	2, 0x
    6bdc:	5864                	.insn	2, 0x5864
	...

00006be0 <__clz_tab>:
    6be0:	0100 0202 0303 0303 0404 0404 0404 0404     ................
    6bf0:	0505 0505 0505 0505 0505 0505 0505 0505     ................
    6c00:	0606 0606 0606 0606 0606 0606 0606 0606     ................
    6c10:	0606 0606 0606 0606 0606 0606 0606 0606     ................
    6c20:	0707 0707 0707 0707 0707 0707 0707 0707     ................
    6c30:	0707 0707 0707 0707 0707 0707 0707 0707     ................
    6c40:	0707 0707 0707 0707 0707 0707 0707 0707     ................
    6c50:	0707 0707 0707 0707 0707 0707 0707 0707     ................
    6c60:	0808 0808 0808 0808 0808 0808 0808 0808     ................
    6c70:	0808 0808 0808 0808 0808 0808 0808 0808     ................
    6c80:	0808 0808 0808 0808 0808 0808 0808 0808     ................
    6c90:	0808 0808 0808 0808 0808 0808 0808 0808     ................
    6ca0:	0808 0808 0808 0808 0808 0808 0808 0808     ................
    6cb0:	0808 0808 0808 0808 0808 0808 0808 0808     ................
    6cc0:	0808 0808 0808 0808 0808 0808 0808 0808     ................
    6cd0:	0808 0808 0808 0808 0808 0808 0808 0808     ................
